

Microchip Technology PIC LITE Macro Assembler V1.21 build 54009 
                                                                                               Sun Oct 19 09:06:33 2014

Microchip Technology Omniscient Code Generator (Lite mode) build 54009
     1                           	processor	16F1788
     2                           	opt	pw 120
     3                           	opt	lm
     4                           	psect	idataBANK0,global,class=CODE,delta=2
     5                           	psect	strings,global,class=STRING,delta=2
     6                           	psect	cinit,global,class=CODE,merge=1,delta=2
     7                           	psect	bitbssBANK0,global,bit,class=BANK0,space=1,delta=1
     8                           	psect	bssBANK0,global,class=BANK0,space=1,delta=1
     9                           	psect	dataBANK0,global,class=BANK0,space=1,delta=1
    10                           	psect	bssBANK1,global,class=BANK1,space=1,delta=1
    11                           	psect	clrtext,global,class=CODE,delta=2
    12                           	psect	cstackCOMMON,global,class=COMMON,space=1,delta=1
    13                           	psect	cstackBANK0,global,class=BANK0,space=1,delta=1
    14                           	psect	maintext,global,class=CODE,merge=1,split=1,delta=2
    15                           	psect	text1,local,class=CODE,merge=1,delta=2
    16                           	psect	text2,local,class=CODE,merge=1,delta=2
    17                           	psect	text3,local,class=CODE,merge=1,delta=2
    18                           	psect	text4,local,class=CODE,merge=1,delta=2
    19                           	psect	text5,local,class=CODE,merge=1,delta=2
    20                           	psect	text6,local,class=CODE,merge=1,delta=2
    21                           	psect	text7,local,class=CODE,merge=1,delta=2
    22                           	psect	text8,local,class=CODE,merge=1,delta=2
    23                           	psect	text9,local,class=CODE,merge=1,delta=2
    24                           	psect	text10,local,class=CODE,merge=1,delta=2
    25                           	psect	text11,local,class=CODE,merge=1,delta=2
    26                           	psect	text12,local,class=CODE,merge=1,delta=2
    27                           	psect	text13,local,class=CODE,merge=1,delta=2
    28                           	psect	text14,local,class=CODE,merge=1,delta=2
    29                           	psect	text15,local,class=CODE,merge=1,delta=2
    30                           	psect	text16,local,class=CODE,merge=1,delta=2
    31                           	psect	text17,local,class=CODE,merge=1,delta=2
    32                           	psect	text18,local,class=CODE,merge=1,delta=2
    33                           	psect	text19,local,class=CODE,merge=1,delta=2
    34                           	psect	text20,local,class=CODE,merge=1,delta=2
    35                           	psect	intentry,global,class=CODE,delta=2
    36                           	psect	text22,local,class=CODE,merge=1,delta=2
    37                           	psect	text23,local,class=CODE,merge=1,delta=2
    38                           	psect	text24,local,class=CODE,merge=1,delta=2
    39                           	dabs	1,0xCA0,32
    40                           	dabs	1,0xC20,80
    41                           	dabs	1,0xBA0,80
    42                           	dabs	1,0xB68,8
    43                           	dabs	1,0x2728,0,_ADC_vADCAry
    44                           	dabs	1,0x7E,2
    45  0000                     	;# 
    46  0001                     	;# 
    47  0002                     	;# 
    48  0003                     	;# 
    49  0004                     	;# 
    50  0005                     	;# 
    51  0006                     	;# 
    52  0007                     	;# 
    53  0008                     	;# 
    54  0009                     	;# 
    55  000A                     	;# 
    56  000B                     	;# 
    57  000C                     	;# 
    58  000D                     	;# 
    59  000E                     	;# 
    60  0010                     	;# 
    61  0011                     	;# 
    62  0012                     	;# 
    63  0013                     	;# 
    64  0014                     	;# 
    65  0015                     	;# 
    66  0016                     	;# 
    67  0016                     	;# 
    68  0017                     	;# 
    69  0018                     	;# 
    70  0019                     	;# 
    71  001A                     	;# 
    72  001B                     	;# 
    73  001C                     	;# 
    74  008C                     	;# 
    75  008D                     	;# 
    76  008E                     	;# 
    77  0090                     	;# 
    78  0091                     	;# 
    79  0092                     	;# 
    80  0093                     	;# 
    81  0094                     	;# 
    82  0095                     	;# 
    83  0096                     	;# 
    84  0097                     	;# 
    85  0098                     	;# 
    86  0099                     	;# 
    87  009A                     	;# 
    88  009B                     	;# 
    89  009B                     	;# 
    90  009C                     	;# 
    91  009D                     	;# 
    92  009E                     	;# 
    93  009F                     	;# 
    94  010C                     	;# 
    95  010D                     	;# 
    96  010E                     	;# 
    97  0111                     	;# 
    98  0112                     	;# 
    99  0113                     	;# 
   100  0114                     	;# 
   101  0115                     	;# 
   102  0116                     	;# 
   103  0117                     	;# 
   104  0118                     	;# 
   105  0119                     	;# 
   106  011A                     	;# 
   107  011B                     	;# 
   108  011C                     	;# 
   109  011D                     	;# 
   110  011D                     	;# 
   111  011D                     	;# 
   112  011E                     	;# 
   113  011F                     	;# 
   114  018C                     	;# 
   115  018D                     	;# 
   116  018E                     	;# 
   117  0191                     	;# 
   118  0191                     	;# 
   119  0192                     	;# 
   120  0193                     	;# 
   121  0193                     	;# 
   122  0193                     	;# 
   123  0194                     	;# 
   124  0195                     	;# 
   125  0196                     	;# 
   126  0197                     	;# 
   127  0199                     	;# 
   128  0199                     	;# 
   129  0199                     	;# 
   130  019A                     	;# 
   131  019A                     	;# 
   132  019A                     	;# 
   133  019B                     	;# 
   134  019B                     	;# 
   135  019B                     	;# 
   136  019B                     	;# 
   137  019B                     	;# 
   138  019C                     	;# 
   139  019C                     	;# 
   140  019C                     	;# 
   141  019D                     	;# 
   142  019D                     	;# 
   143  019D                     	;# 
   144  019E                     	;# 
   145  019E                     	;# 
   146  019E                     	;# 
   147  019F                     	;# 
   148  019F                     	;# 
   149  019F                     	;# 
   150  019F                     	;# 
   151  019F                     	;# 
   152  020C                     	;# 
   153  020D                     	;# 
   154  020E                     	;# 
   155  0210                     	;# 
   156  0211                     	;# 
   157  0211                     	;# 
   158  0212                     	;# 
   159  0212                     	;# 
   160  0213                     	;# 
   161  0213                     	;# 
   162  0214                     	;# 
   163  0214                     	;# 
   164  0215                     	;# 
   165  0215                     	;# 
   166  0215                     	;# 
   167  0215                     	;# 
   168  0216                     	;# 
   169  0216                     	;# 
   170  0217                     	;# 
   171  0217                     	;# 
   172  028C                     	;# 
   173  028D                     	;# 
   174  028E                     	;# 
   175  0291                     	;# 
   176  0291                     	;# 
   177  0292                     	;# 
   178  0293                     	;# 
   179  0298                     	;# 
   180  0298                     	;# 
   181  0299                     	;# 
   182  029A                     	;# 
   183  030C                     	;# 
   184  030D                     	;# 
   185  030E                     	;# 
   186  0311                     	;# 
   187  0311                     	;# 
   188  0312                     	;# 
   189  0313                     	;# 
   190  038C                     	;# 
   191  038D                     	;# 
   192  038E                     	;# 
   193  0390                     	;# 
   194  0391                     	;# 
   195  0392                     	;# 
   196  0393                     	;# 
   197  0394                     	;# 
   198  0395                     	;# 
   199  0396                     	;# 
   200  0397                     	;# 
   201  0398                     	;# 
   202  0399                     	;# 
   203  039D                     	;# 
   204  039E                     	;# 
   205  039F                     	;# 
   206  0511                     	;# 
   207  0513                     	;# 
   208  051A                     	;# 
   209  0591                     	;# 
   210  0592                     	;# 
   211  0593                     	;# 
   212  0594                     	;# 
   213  0595                     	;# 
   214  0596                     	;# 
   215  0E91                     	;# 
   216  0E92                     	;# 
   217  0E93                     	;# 
   218  0E94                     	;# 
   219  0E95                     	;# 
   220  0E96                     	;# 
   221  0E97                     	;# 
   222  0E98                     	;# 
   223  0E99                     	;# 
   224  0E9A                     	;# 
   225  0E9B                     	;# 
   226  0E9C                     	;# 
   227  0E9D                     	;# 
   228  0E9E                     	;# 
   229  0E9F                     	;# 
   230  0EA0                     	;# 
   231  0EA1                     	;# 
   232  0EA1                     	;# 
   233  0EA2                     	;# 
   234  0EA3                     	;# 
   235  0EA3                     	;# 
   236  0EA4                     	;# 
   237  0EA5                     	;# 
   238  0EA5                     	;# 
   239  0EA6                     	;# 
   240  0EA7                     	;# 
   241  0EA7                     	;# 
   242  0EA8                     	;# 
   243  0EA9                     	;# 
   244  0EAA                     	;# 
   245  0EAB                     	;# 
   246  0EAC                     	;# 
   247  0EAD                     	;# 
   248  0EAE                     	;# 
   249  0EAF                     	;# 
   250  0EB1                     	;# 
   251  0EB2                     	;# 
   252  0EB3                     	;# 
   253  0EB4                     	;# 
   254  0EB5                     	;# 
   255  0EB6                     	;# 
   256  0EB7                     	;# 
   257  0EB8                     	;# 
   258  0EB9                     	;# 
   259  0EBA                     	;# 
   260  0EBB                     	;# 
   261  0EBC                     	;# 
   262  0EBD                     	;# 
   263  0EBE                     	;# 
   264  0EBF                     	;# 
   265  0EC0                     	;# 
   266  0EC1                     	;# 
   267  0EC1                     	;# 
   268  0EC2                     	;# 
   269  0EC3                     	;# 
   270  0EC3                     	;# 
   271  0EC4                     	;# 
   272  0EC5                     	;# 
   273  0EC5                     	;# 
   274  0EC6                     	;# 
   275  0EC7                     	;# 
   276  0EC7                     	;# 
   277  0EC8                     	;# 
   278  0EC9                     	;# 
   279  0ECA                     	;# 
   280  0ECB                     	;# 
   281  0ECC                     	;# 
   282  0ECD                     	;# 
   283  0ECE                     	;# 
   284  0ECF                     	;# 
   285  0ED1                     	;# 
   286  0ED2                     	;# 
   287  0ED3                     	;# 
   288  0ED4                     	;# 
   289  0ED5                     	;# 
   290  0ED6                     	;# 
   291  0ED7                     	;# 
   292  0ED8                     	;# 
   293  0ED9                     	;# 
   294  0EDA                     	;# 
   295  0EDB                     	;# 
   296  0EDC                     	;# 
   297  0EDD                     	;# 
   298  0EDE                     	;# 
   299  0EDF                     	;# 
   300  0EE0                     	;# 
   301  0EE1                     	;# 
   302  0EE1                     	;# 
   303  0EE2                     	;# 
   304  0EE3                     	;# 
   305  0EE3                     	;# 
   306  0EE4                     	;# 
   307  0EE5                     	;# 
   308  0EE5                     	;# 
   309  0EE6                     	;# 
   310  0EE7                     	;# 
   311  0EE7                     	;# 
   312  0EE8                     	;# 
   313  0EE9                     	;# 
   314  0EEA                     	;# 
   315  0EEB                     	;# 
   316  0EEC                     	;# 
   317  0EED                     	;# 
   318  0EEE                     	;# 
   319  0EEF                     	;# 
   320  0F11                     	;# 
   321  0F12                     	;# 
   322  0F13                     	;# 
   323  0F14                     	;# 
   324  0F15                     	;# 
   325  0F16                     	;# 
   326  0F17                     	;# 
   327  0F18                     	;# 
   328  0F19                     	;# 
   329  0F1A                     	;# 
   330  0F1B                     	;# 
   331  0F1C                     	;# 
   332  0F1D                     	;# 
   333  0F1E                     	;# 
   334  0F1F                     	;# 
   335  0F20                     	;# 
   336  0F21                     	;# 
   337  0F21                     	;# 
   338  0F22                     	;# 
   339  0F23                     	;# 
   340  0F23                     	;# 
   341  0F24                     	;# 
   342  0F25                     	;# 
   343  0F25                     	;# 
   344  0F26                     	;# 
   345  0F27                     	;# 
   346  0F27                     	;# 
   347  0F28                     	;# 
   348  0F29                     	;# 
   349  0F2A                     	;# 
   350  0F2B                     	;# 
   351  0F2C                     	;# 
   352  0F2D                     	;# 
   353  0F2E                     	;# 
   354  0F2F                     	;# 
   355  0FE4                     	;# 
   356  0FE5                     	;# 
   357  0FE6                     	;# 
   358  0FE7                     	;# 
   359  0FE8                     	;# 
   360  0FE9                     	;# 
   361  0FEA                     	;# 
   362  0FEB                     	;# 
   363  0FED                     	;# 
   364  0FEE                     	;# 
   365  0FEF                     	;# 
   366  0000                     	;# 
   367  0001                     	;# 
   368  0002                     	;# 
   369  0003                     	;# 
   370  0004                     	;# 
   371  0005                     	;# 
   372  0006                     	;# 
   373  0007                     	;# 
   374  0008                     	;# 
   375  0009                     	;# 
   376  000A                     	;# 
   377  000B                     	;# 
   378  000C                     	;# 
   379  000D                     	;# 
   380  000E                     	;# 
   381  0010                     	;# 
   382  0011                     	;# 
   383  0012                     	;# 
   384  0013                     	;# 
   385  0014                     	;# 
   386  0015                     	;# 
   387  0016                     	;# 
   388  0016                     	;# 
   389  0017                     	;# 
   390  0018                     	;# 
   391  0019                     	;# 
   392  001A                     	;# 
   393  001B                     	;# 
   394  001C                     	;# 
   395  008C                     	;# 
   396  008D                     	;# 
   397  008E                     	;# 
   398  0090                     	;# 
   399  0091                     	;# 
   400  0092                     	;# 
   401  0093                     	;# 
   402  0094                     	;# 
   403  0095                     	;# 
   404  0096                     	;# 
   405  0097                     	;# 
   406  0098                     	;# 
   407  0099                     	;# 
   408  009A                     	;# 
   409  009B                     	;# 
   410  009B                     	;# 
   411  009C                     	;# 
   412  009D                     	;# 
   413  009E                     	;# 
   414  009F                     	;# 
   415  010C                     	;# 
   416  010D                     	;# 
   417  010E                     	;# 
   418  0111                     	;# 
   419  0112                     	;# 
   420  0113                     	;# 
   421  0114                     	;# 
   422  0115                     	;# 
   423  0116                     	;# 
   424  0117                     	;# 
   425  0118                     	;# 
   426  0119                     	;# 
   427  011A                     	;# 
   428  011B                     	;# 
   429  011C                     	;# 
   430  011D                     	;# 
   431  011D                     	;# 
   432  011D                     	;# 
   433  011E                     	;# 
   434  011F                     	;# 
   435  018C                     	;# 
   436  018D                     	;# 
   437  018E                     	;# 
   438  0191                     	;# 
   439  0191                     	;# 
   440  0192                     	;# 
   441  0193                     	;# 
   442  0193                     	;# 
   443  0193                     	;# 
   444  0194                     	;# 
   445  0195                     	;# 
   446  0196                     	;# 
   447  0197                     	;# 
   448  0199                     	;# 
   449  0199                     	;# 
   450  0199                     	;# 
   451  019A                     	;# 
   452  019A                     	;# 
   453  019A                     	;# 
   454  019B                     	;# 
   455  019B                     	;# 
   456  019B                     	;# 
   457  019B                     	;# 
   458  019B                     	;# 
   459  019C                     	;# 
   460  019C                     	;# 
   461  019C                     	;# 
   462  019D                     	;# 
   463  019D                     	;# 
   464  019D                     	;# 
   465  019E                     	;# 
   466  019E                     	;# 
   467  019E                     	;# 
   468  019F                     	;# 
   469  019F                     	;# 
   470  019F                     	;# 
   471  019F                     	;# 
   472  019F                     	;# 
   473  020C                     	;# 
   474  020D                     	;# 
   475  020E                     	;# 
   476  0210                     	;# 
   477  0211                     	;# 
   478  0211                     	;# 
   479  0212                     	;# 
   480  0212                     	;# 
   481  0213                     	;# 
   482  0213                     	;# 
   483  0214                     	;# 
   484  0214                     	;# 
   485  0215                     	;# 
   486  0215                     	;# 
   487  0215                     	;# 
   488  0215                     	;# 
   489  0216                     	;# 
   490  0216                     	;# 
   491  0217                     	;# 
   492  0217                     	;# 
   493  028C                     	;# 
   494  028D                     	;# 
   495  028E                     	;# 
   496  0291                     	;# 
   497  0291                     	;# 
   498  0292                     	;# 
   499  0293                     	;# 
   500  0298                     	;# 
   501  0298                     	;# 
   502  0299                     	;# 
   503  029A                     	;# 
   504  030C                     	;# 
   505  030D                     	;# 
   506  030E                     	;# 
   507  0311                     	;# 
   508  0311                     	;# 
   509  0312                     	;# 
   510  0313                     	;# 
   511  038C                     	;# 
   512  038D                     	;# 
   513  038E                     	;# 
   514  0390                     	;# 
   515  0391                     	;# 
   516  0392                     	;# 
   517  0393                     	;# 
   518  0394                     	;# 
   519  0395                     	;# 
   520  0396                     	;# 
   521  0397                     	;# 
   522  0398                     	;# 
   523  0399                     	;# 
   524  039D                     	;# 
   525  039E                     	;# 
   526  039F                     	;# 
   527  0511                     	;# 
   528  0513                     	;# 
   529  051A                     	;# 
   530  0591                     	;# 
   531  0592                     	;# 
   532  0593                     	;# 
   533  0594                     	;# 
   534  0595                     	;# 
   535  0596                     	;# 
   536  0E91                     	;# 
   537  0E92                     	;# 
   538  0E93                     	;# 
   539  0E94                     	;# 
   540  0E95                     	;# 
   541  0E96                     	;# 
   542  0E97                     	;# 
   543  0E98                     	;# 
   544  0E99                     	;# 
   545  0E9A                     	;# 
   546  0E9B                     	;# 
   547  0E9C                     	;# 
   548  0E9D                     	;# 
   549  0E9E                     	;# 
   550  0E9F                     	;# 
   551  0EA0                     	;# 
   552  0EA1                     	;# 
   553  0EA1                     	;# 
   554  0EA2                     	;# 
   555  0EA3                     	;# 
   556  0EA3                     	;# 
   557  0EA4                     	;# 
   558  0EA5                     	;# 
   559  0EA5                     	;# 
   560  0EA6                     	;# 
   561  0EA7                     	;# 
   562  0EA7                     	;# 
   563  0EA8                     	;# 
   564  0EA9                     	;# 
   565  0EAA                     	;# 
   566  0EAB                     	;# 
   567  0EAC                     	;# 
   568  0EAD                     	;# 
   569  0EAE                     	;# 
   570  0EAF                     	;# 
   571  0EB1                     	;# 
   572  0EB2                     	;# 
   573  0EB3                     	;# 
   574  0EB4                     	;# 
   575  0EB5                     	;# 
   576  0EB6                     	;# 
   577  0EB7                     	;# 
   578  0EB8                     	;# 
   579  0EB9                     	;# 
   580  0EBA                     	;# 
   581  0EBB                     	;# 
   582  0EBC                     	;# 
   583  0EBD                     	;# 
   584  0EBE                     	;# 
   585  0EBF                     	;# 
   586  0EC0                     	;# 
   587  0EC1                     	;# 
   588  0EC1                     	;# 
   589  0EC2                     	;# 
   590  0EC3                     	;# 
   591  0EC3                     	;# 
   592  0EC4                     	;# 
   593  0EC5                     	;# 
   594  0EC5                     	;# 
   595  0EC6                     	;# 
   596  0EC7                     	;# 
   597  0EC7                     	;# 
   598  0EC8                     	;# 
   599  0EC9                     	;# 
   600  0ECA                     	;# 
   601  0ECB                     	;# 
   602  0ECC                     	;# 
   603  0ECD                     	;# 
   604  0ECE                     	;# 
   605  0ECF                     	;# 
   606  0ED1                     	;# 
   607  0ED2                     	;# 
   608  0ED3                     	;# 
   609  0ED4                     	;# 
   610  0ED5                     	;# 
   611  0ED6                     	;# 
   612  0ED7                     	;# 
   613  0ED8                     	;# 
   614  0ED9                     	;# 
   615  0EDA                     	;# 
   616  0EDB                     	;# 
   617  0EDC                     	;# 
   618  0EDD                     	;# 
   619  0EDE                     	;# 
   620  0EDF                     	;# 
   621  0EE0                     	;# 
   622  0EE1                     	;# 
   623  0EE1                     	;# 
   624  0EE2                     	;# 
   625  0EE3                     	;# 
   626  0EE3                     	;# 
   627  0EE4                     	;# 
   628  0EE5                     	;# 
   629  0EE5                     	;# 
   630  0EE6                     	;# 
   631  0EE7                     	;# 
   632  0EE7                     	;# 
   633  0EE8                     	;# 
   634  0EE9                     	;# 
   635  0EEA                     	;# 
   636  0EEB                     	;# 
   637  0EEC                     	;# 
   638  0EED                     	;# 
   639  0EEE                     	;# 
   640  0EEF                     	;# 
   641  0F11                     	;# 
   642  0F12                     	;# 
   643  0F13                     	;# 
   644  0F14                     	;# 
   645  0F15                     	;# 
   646  0F16                     	;# 
   647  0F17                     	;# 
   648  0F18                     	;# 
   649  0F19                     	;# 
   650  0F1A                     	;# 
   651  0F1B                     	;# 
   652  0F1C                     	;# 
   653  0F1D                     	;# 
   654  0F1E                     	;# 
   655  0F1F                     	;# 
   656  0F20                     	;# 
   657  0F21                     	;# 
   658  0F21                     	;# 
   659  0F22                     	;# 
   660  0F23                     	;# 
   661  0F23                     	;# 
   662  0F24                     	;# 
   663  0F25                     	;# 
   664  0F25                     	;# 
   665  0F26                     	;# 
   666  0F27                     	;# 
   667  0F27                     	;# 
   668  0F28                     	;# 
   669  0F29                     	;# 
   670  0F2A                     	;# 
   671  0F2B                     	;# 
   672  0F2C                     	;# 
   673  0F2D                     	;# 
   674  0F2E                     	;# 
   675  0F2F                     	;# 
   676  0FE4                     	;# 
   677  0FE5                     	;# 
   678  0FE6                     	;# 
   679  0FE7                     	;# 
   680  0FE8                     	;# 
   681  0FE9                     	;# 
   682  0FEA                     	;# 
   683  0FEB                     	;# 
   684  0FED                     	;# 
   685  0FEE                     	;# 
   686  0FEF                     	;# 
   687  0000                     	;# 
   688  0001                     	;# 
   689  0002                     	;# 
   690  0003                     	;# 
   691  0004                     	;# 
   692  0005                     	;# 
   693  0006                     	;# 
   694  0007                     	;# 
   695  0008                     	;# 
   696  0009                     	;# 
   697  000A                     	;# 
   698  000B                     	;# 
   699  000C                     	;# 
   700  000D                     	;# 
   701  000E                     	;# 
   702  0010                     	;# 
   703  0011                     	;# 
   704  0012                     	;# 
   705  0013                     	;# 
   706  0014                     	;# 
   707  0015                     	;# 
   708  0016                     	;# 
   709  0016                     	;# 
   710  0017                     	;# 
   711  0018                     	;# 
   712  0019                     	;# 
   713  001A                     	;# 
   714  001B                     	;# 
   715  001C                     	;# 
   716  008C                     	;# 
   717  008D                     	;# 
   718  008E                     	;# 
   719  0090                     	;# 
   720  0091                     	;# 
   721  0092                     	;# 
   722  0093                     	;# 
   723  0094                     	;# 
   724  0095                     	;# 
   725  0096                     	;# 
   726  0097                     	;# 
   727  0098                     	;# 
   728  0099                     	;# 
   729  009A                     	;# 
   730  009B                     	;# 
   731  009B                     	;# 
   732  009C                     	;# 
   733  009D                     	;# 
   734  009E                     	;# 
   735  009F                     	;# 
   736  010C                     	;# 
   737  010D                     	;# 
   738  010E                     	;# 
   739  0111                     	;# 
   740  0112                     	;# 
   741  0113                     	;# 
   742  0114                     	;# 
   743  0115                     	;# 
   744  0116                     	;# 
   745  0117                     	;# 
   746  0118                     	;# 
   747  0119                     	;# 
   748  011A                     	;# 
   749  011B                     	;# 
   750  011C                     	;# 
   751  011D                     	;# 
   752  011D                     	;# 
   753  011D                     	;# 
   754  011E                     	;# 
   755  011F                     	;# 
   756  018C                     	;# 
   757  018D                     	;# 
   758  018E                     	;# 
   759  0191                     	;# 
   760  0191                     	;# 
   761  0192                     	;# 
   762  0193                     	;# 
   763  0193                     	;# 
   764  0193                     	;# 
   765  0194                     	;# 
   766  0195                     	;# 
   767  0196                     	;# 
   768  0197                     	;# 
   769  0199                     	;# 
   770  0199                     	;# 
   771  0199                     	;# 
   772  019A                     	;# 
   773  019A                     	;# 
   774  019A                     	;# 
   775  019B                     	;# 
   776  019B                     	;# 
   777  019B                     	;# 
   778  019B                     	;# 
   779  019B                     	;# 
   780  019C                     	;# 
   781  019C                     	;# 
   782  019C                     	;# 
   783  019D                     	;# 
   784  019D                     	;# 
   785  019D                     	;# 
   786  019E                     	;# 
   787  019E                     	;# 
   788  019E                     	;# 
   789  019F                     	;# 
   790  019F                     	;# 
   791  019F                     	;# 
   792  019F                     	;# 
   793  019F                     	;# 
   794  020C                     	;# 
   795  020D                     	;# 
   796  020E                     	;# 
   797  0210                     	;# 
   798  0211                     	;# 
   799  0211                     	;# 
   800  0212                     	;# 
   801  0212                     	;# 
   802  0213                     	;# 
   803  0213                     	;# 
   804  0214                     	;# 
   805  0214                     	;# 
   806  0215                     	;# 
   807  0215                     	;# 
   808  0215                     	;# 
   809  0215                     	;# 
   810  0216                     	;# 
   811  0216                     	;# 
   812  0217                     	;# 
   813  0217                     	;# 
   814  028C                     	;# 
   815  028D                     	;# 
   816  028E                     	;# 
   817  0291                     	;# 
   818  0291                     	;# 
   819  0292                     	;# 
   820  0293                     	;# 
   821  0298                     	;# 
   822  0298                     	;# 
   823  0299                     	;# 
   824  029A                     	;# 
   825  030C                     	;# 
   826  030D                     	;# 
   827  030E                     	;# 
   828  0311                     	;# 
   829  0311                     	;# 
   830  0312                     	;# 
   831  0313                     	;# 
   832  038C                     	;# 
   833  038D                     	;# 
   834  038E                     	;# 
   835  0390                     	;# 
   836  0391                     	;# 
   837  0392                     	;# 
   838  0393                     	;# 
   839  0394                     	;# 
   840  0395                     	;# 
   841  0396                     	;# 
   842  0397                     	;# 
   843  0398                     	;# 
   844  0399                     	;# 
   845  039D                     	;# 
   846  039E                     	;# 
   847  039F                     	;# 
   848  0511                     	;# 
   849  0513                     	;# 
   850  051A                     	;# 
   851  0591                     	;# 
   852  0592                     	;# 
   853  0593                     	;# 
   854  0594                     	;# 
   855  0595                     	;# 
   856  0596                     	;# 
   857  0E91                     	;# 
   858  0E92                     	;# 
   859  0E93                     	;# 
   860  0E94                     	;# 
   861  0E95                     	;# 
   862  0E96                     	;# 
   863  0E97                     	;# 
   864  0E98                     	;# 
   865  0E99                     	;# 
   866  0E9A                     	;# 
   867  0E9B                     	;# 
   868  0E9C                     	;# 
   869  0E9D                     	;# 
   870  0E9E                     	;# 
   871  0E9F                     	;# 
   872  0EA0                     	;# 
   873  0EA1                     	;# 
   874  0EA1                     	;# 
   875  0EA2                     	;# 
   876  0EA3                     	;# 
   877  0EA3                     	;# 
   878  0EA4                     	;# 
   879  0EA5                     	;# 
   880  0EA5                     	;# 
   881  0EA6                     	;# 
   882  0EA7                     	;# 
   883  0EA7                     	;# 
   884  0EA8                     	;# 
   885  0EA9                     	;# 
   886  0EAA                     	;# 
   887  0EAB                     	;# 
   888  0EAC                     	;# 
   889  0EAD                     	;# 
   890  0EAE                     	;# 
   891  0EAF                     	;# 
   892  0EB1                     	;# 
   893  0EB2                     	;# 
   894  0EB3                     	;# 
   895  0EB4                     	;# 
   896  0EB5                     	;# 
   897  0EB6                     	;# 
   898  0EB7                     	;# 
   899  0EB8                     	;# 
   900  0EB9                     	;# 
   901  0EBA                     	;# 
   902  0EBB                     	;# 
   903  0EBC                     	;# 
   904  0EBD                     	;# 
   905  0EBE                     	;# 
   906  0EBF                     	;# 
   907  0EC0                     	;# 
   908  0EC1                     	;# 
   909  0EC1                     	;# 
   910  0EC2                     	;# 
   911  0EC3                     	;# 
   912  0EC3                     	;# 
   913  0EC4                     	;# 
   914  0EC5                     	;# 
   915  0EC5                     	;# 
   916  0EC6                     	;# 
   917  0EC7                     	;# 
   918  0EC7                     	;# 
   919  0EC8                     	;# 
   920  0EC9                     	;# 
   921  0ECA                     	;# 
   922  0ECB                     	;# 
   923  0ECC                     	;# 
   924  0ECD                     	;# 
   925  0ECE                     	;# 
   926  0ECF                     	;# 
   927  0ED1                     	;# 
   928  0ED2                     	;# 
   929  0ED3                     	;# 
   930  0ED4                     	;# 
   931  0ED5                     	;# 
   932  0ED6                     	;# 
   933  0ED7                     	;# 
   934  0ED8                     	;# 
   935  0ED9                     	;# 
   936  0EDA                     	;# 
   937  0EDB                     	;# 
   938  0EDC                     	;# 
   939  0EDD                     	;# 
   940  0EDE                     	;# 
   941  0EDF                     	;# 
   942  0EE0                     	;# 
   943  0EE1                     	;# 
   944  0EE1                     	;# 
   945  0EE2                     	;# 
   946  0EE3                     	;# 
   947  0EE3                     	;# 
   948  0EE4                     	;# 
   949  0EE5                     	;# 
   950  0EE5                     	;# 
   951  0EE6                     	;# 
   952  0EE7                     	;# 
   953  0EE7                     	;# 
   954  0EE8                     	;# 
   955  0EE9                     	;# 
   956  0EEA                     	;# 
   957  0EEB                     	;# 
   958  0EEC                     	;# 
   959  0EED                     	;# 
   960  0EEE                     	;# 
   961  0EEF                     	;# 
   962  0F11                     	;# 
   963  0F12                     	;# 
   964  0F13                     	;# 
   965  0F14                     	;# 
   966  0F15                     	;# 
   967  0F16                     	;# 
   968  0F17                     	;# 
   969  0F18                     	;# 
   970  0F19                     	;# 
   971  0F1A                     	;# 
   972  0F1B                     	;# 
   973  0F1C                     	;# 
   974  0F1D                     	;# 
   975  0F1E                     	;# 
   976  0F1F                     	;# 
   977  0F20                     	;# 
   978  0F21                     	;# 
   979  0F21                     	;# 
   980  0F22                     	;# 
   981  0F23                     	;# 
   982  0F23                     	;# 
   983  0F24                     	;# 
   984  0F25                     	;# 
   985  0F25                     	;# 
   986  0F26                     	;# 
   987  0F27                     	;# 
   988  0F27                     	;# 
   989  0F28                     	;# 
   990  0F29                     	;# 
   991  0F2A                     	;# 
   992  0F2B                     	;# 
   993  0F2C                     	;# 
   994  0F2D                     	;# 
   995  0F2E                     	;# 
   996  0F2F                     	;# 
   997  0FE4                     	;# 
   998  0FE5                     	;# 
   999  0FE6                     	;# 
  1000  0FE7                     	;# 
  1001  0FE8                     	;# 
  1002  0FE9                     	;# 
  1003  0FEA                     	;# 
  1004  0FEB                     	;# 
  1005  0FED                     	;# 
  1006  0FEE                     	;# 
  1007  0FEF                     	;# 
  1008  0000                     	;# 
  1009  0001                     	;# 
  1010  0002                     	;# 
  1011  0003                     	;# 
  1012  0004                     	;# 
  1013  0005                     	;# 
  1014  0006                     	;# 
  1015  0007                     	;# 
  1016  0008                     	;# 
  1017  0009                     	;# 
  1018  000A                     	;# 
  1019  000B                     	;# 
  1020  000C                     	;# 
  1021  000D                     	;# 
  1022  000E                     	;# 
  1023  0010                     	;# 
  1024  0011                     	;# 
  1025  0012                     	;# 
  1026  0013                     	;# 
  1027  0014                     	;# 
  1028  0015                     	;# 
  1029  0016                     	;# 
  1030  0016                     	;# 
  1031  0017                     	;# 
  1032  0018                     	;# 
  1033  0019                     	;# 
  1034  001A                     	;# 
  1035  001B                     	;# 
  1036  001C                     	;# 
  1037  008C                     	;# 
  1038  008D                     	;# 
  1039  008E                     	;# 
  1040  0090                     	;# 
  1041  0091                     	;# 
  1042  0092                     	;# 
  1043  0093                     	;# 
  1044  0094                     	;# 
  1045  0095                     	;# 
  1046  0096                     	;# 
  1047  0097                     	;# 
  1048  0098                     	;# 
  1049  0099                     	;# 
  1050  009A                     	;# 
  1051  009B                     	;# 
  1052  009B                     	;# 
  1053  009C                     	;# 
  1054  009D                     	;# 
  1055  009E                     	;# 
  1056  009F                     	;# 
  1057  010C                     	;# 
  1058  010D                     	;# 
  1059  010E                     	;# 
  1060  0111                     	;# 
  1061  0112                     	;# 
  1062  0113                     	;# 
  1063  0114                     	;# 
  1064  0115                     	;# 
  1065  0116                     	;# 
  1066  0117                     	;# 
  1067  0118                     	;# 
  1068  0119                     	;# 
  1069  011A                     	;# 
  1070  011B                     	;# 
  1071  011C                     	;# 
  1072  011D                     	;# 
  1073  011D                     	;# 
  1074  011D                     	;# 
  1075  011E                     	;# 
  1076  011F                     	;# 
  1077  018C                     	;# 
  1078  018D                     	;# 
  1079  018E                     	;# 
  1080  0191                     	;# 
  1081  0191                     	;# 
  1082  0192                     	;# 
  1083  0193                     	;# 
  1084  0193                     	;# 
  1085  0193                     	;# 
  1086  0194                     	;# 
  1087  0195                     	;# 
  1088  0196                     	;# 
  1089  0197                     	;# 
  1090  0199                     	;# 
  1091  0199                     	;# 
  1092  0199                     	;# 
  1093  019A                     	;# 
  1094  019A                     	;# 
  1095  019A                     	;# 
  1096  019B                     	;# 
  1097  019B                     	;# 
  1098  019B                     	;# 
  1099  019B                     	;# 
  1100  019B                     	;# 
  1101  019C                     	;# 
  1102  019C                     	;# 
  1103  019C                     	;# 
  1104  019D                     	;# 
  1105  019D                     	;# 
  1106  019D                     	;# 
  1107  019E                     	;# 
  1108  019E                     	;# 
  1109  019E                     	;# 
  1110  019F                     	;# 
  1111  019F                     	;# 
  1112  019F                     	;# 
  1113  019F                     	;# 
  1114  019F                     	;# 
  1115  020C                     	;# 
  1116  020D                     	;# 
  1117  020E                     	;# 
  1118  0210                     	;# 
  1119  0211                     	;# 
  1120  0211                     	;# 
  1121  0212                     	;# 
  1122  0212                     	;# 
  1123  0213                     	;# 
  1124  0213                     	;# 
  1125  0214                     	;# 
  1126  0214                     	;# 
  1127  0215                     	;# 
  1128  0215                     	;# 
  1129  0215                     	;# 
  1130  0215                     	;# 
  1131  0216                     	;# 
  1132  0216                     	;# 
  1133  0217                     	;# 
  1134  0217                     	;# 
  1135  028C                     	;# 
  1136  028D                     	;# 
  1137  028E                     	;# 
  1138  0291                     	;# 
  1139  0291                     	;# 
  1140  0292                     	;# 
  1141  0293                     	;# 
  1142  0298                     	;# 
  1143  0298                     	;# 
  1144  0299                     	;# 
  1145  029A                     	;# 
  1146  030C                     	;# 
  1147  030D                     	;# 
  1148  030E                     	;# 
  1149  0311                     	;# 
  1150  0311                     	;# 
  1151  0312                     	;# 
  1152  0313                     	;# 
  1153  038C                     	;# 
  1154  038D                     	;# 
  1155  038E                     	;# 
  1156  0390                     	;# 
  1157  0391                     	;# 
  1158  0392                     	;# 
  1159  0393                     	;# 
  1160  0394                     	;# 
  1161  0395                     	;# 
  1162  0396                     	;# 
  1163  0397                     	;# 
  1164  0398                     	;# 
  1165  0399                     	;# 
  1166  039D                     	;# 
  1167  039E                     	;# 
  1168  039F                     	;# 
  1169  0511                     	;# 
  1170  0513                     	;# 
  1171  051A                     	;# 
  1172  0591                     	;# 
  1173  0592                     	;# 
  1174  0593                     	;# 
  1175  0594                     	;# 
  1176  0595                     	;# 
  1177  0596                     	;# 
  1178  0E91                     	;# 
  1179  0E92                     	;# 
  1180  0E93                     	;# 
  1181  0E94                     	;# 
  1182  0E95                     	;# 
  1183  0E96                     	;# 
  1184  0E97                     	;# 
  1185  0E98                     	;# 
  1186  0E99                     	;# 
  1187  0E9A                     	;# 
  1188  0E9B                     	;# 
  1189  0E9C                     	;# 
  1190  0E9D                     	;# 
  1191  0E9E                     	;# 
  1192  0E9F                     	;# 
  1193  0EA0                     	;# 
  1194  0EA1                     	;# 
  1195  0EA1                     	;# 
  1196  0EA2                     	;# 
  1197  0EA3                     	;# 
  1198  0EA3                     	;# 
  1199  0EA4                     	;# 
  1200  0EA5                     	;# 
  1201  0EA5                     	;# 
  1202  0EA6                     	;# 
  1203  0EA7                     	;# 
  1204  0EA7                     	;# 
  1205  0EA8                     	;# 
  1206  0EA9                     	;# 
  1207  0EAA                     	;# 
  1208  0EAB                     	;# 
  1209  0EAC                     	;# 
  1210  0EAD                     	;# 
  1211  0EAE                     	;# 
  1212  0EAF                     	;# 
  1213  0EB1                     	;# 
  1214  0EB2                     	;# 
  1215  0EB3                     	;# 
  1216  0EB4                     	;# 
  1217  0EB5                     	;# 
  1218  0EB6                     	;# 
  1219  0EB7                     	;# 
  1220  0EB8                     	;# 
  1221  0EB9                     	;# 
  1222  0EBA                     	;# 
  1223  0EBB                     	;# 
  1224  0EBC                     	;# 
  1225  0EBD                     	;# 
  1226  0EBE                     	;# 
  1227  0EBF                     	;# 
  1228  0EC0                     	;# 
  1229  0EC1                     	;# 
  1230  0EC1                     	;# 
  1231  0EC2                     	;# 
  1232  0EC3                     	;# 
  1233  0EC3                     	;# 
  1234  0EC4                     	;# 
  1235  0EC5                     	;# 
  1236  0EC5                     	;# 
  1237  0EC6                     	;# 
  1238  0EC7                     	;# 
  1239  0EC7                     	;# 
  1240  0EC8                     	;# 
  1241  0EC9                     	;# 
  1242  0ECA                     	;# 
  1243  0ECB                     	;# 
  1244  0ECC                     	;# 
  1245  0ECD                     	;# 
  1246  0ECE                     	;# 
  1247  0ECF                     	;# 
  1248  0ED1                     	;# 
  1249  0ED2                     	;# 
  1250  0ED3                     	;# 
  1251  0ED4                     	;# 
  1252  0ED5                     	;# 
  1253  0ED6                     	;# 
  1254  0ED7                     	;# 
  1255  0ED8                     	;# 
  1256  0ED9                     	;# 
  1257  0EDA                     	;# 
  1258  0EDB                     	;# 
  1259  0EDC                     	;# 
  1260  0EDD                     	;# 
  1261  0EDE                     	;# 
  1262  0EDF                     	;# 
  1263  0EE0                     	;# 
  1264  0EE1                     	;# 
  1265  0EE1                     	;# 
  1266  0EE2                     	;# 
  1267  0EE3                     	;# 
  1268  0EE3                     	;# 
  1269  0EE4                     	;# 
  1270  0EE5                     	;# 
  1271  0EE5                     	;# 
  1272  0EE6                     	;# 
  1273  0EE7                     	;# 
  1274  0EE7                     	;# 
  1275  0EE8                     	;# 
  1276  0EE9                     	;# 
  1277  0EEA                     	;# 
  1278  0EEB                     	;# 
  1279  0EEC                     	;# 
  1280  0EED                     	;# 
  1281  0EEE                     	;# 
  1282  0EEF                     	;# 
  1283  0F11                     	;# 
  1284  0F12                     	;# 
  1285  0F13                     	;# 
  1286  0F14                     	;# 
  1287  0F15                     	;# 
  1288  0F16                     	;# 
  1289  0F17                     	;# 
  1290  0F18                     	;# 
  1291  0F19                     	;# 
  1292  0F1A                     	;# 
  1293  0F1B                     	;# 
  1294  0F1C                     	;# 
  1295  0F1D                     	;# 
  1296  0F1E                     	;# 
  1297  0F1F                     	;# 
  1298  0F20                     	;# 
  1299  0F21                     	;# 
  1300  0F21                     	;# 
  1301  0F22                     	;# 
  1302  0F23                     	;# 
  1303  0F23                     	;# 
  1304  0F24                     	;# 
  1305  0F25                     	;# 
  1306  0F25                     	;# 
  1307  0F26                     	;# 
  1308  0F27                     	;# 
  1309  0F27                     	;# 
  1310  0F28                     	;# 
  1311  0F29                     	;# 
  1312  0F2A                     	;# 
  1313  0F2B                     	;# 
  1314  0F2C                     	;# 
  1315  0F2D                     	;# 
  1316  0F2E                     	;# 
  1317  0F2F                     	;# 
  1318  0FE4                     	;# 
  1319  0FE5                     	;# 
  1320  0FE6                     	;# 
  1321  0FE7                     	;# 
  1322  0FE8                     	;# 
  1323  0FE9                     	;# 
  1324  0FEA                     	;# 
  1325  0FEB                     	;# 
  1326  0FED                     	;# 
  1327  0FEE                     	;# 
  1328  0FEF                     	;# 
  1329  0000                     	;# 
  1330  0001                     	;# 
  1331  0002                     	;# 
  1332  0003                     	;# 
  1333  0004                     	;# 
  1334  0005                     	;# 
  1335  0006                     	;# 
  1336  0007                     	;# 
  1337  0008                     	;# 
  1338  0009                     	;# 
  1339  000A                     	;# 
  1340  000B                     	;# 
  1341  000C                     	;# 
  1342  000D                     	;# 
  1343  000E                     	;# 
  1344  0010                     	;# 
  1345  0011                     	;# 
  1346  0012                     	;# 
  1347  0013                     	;# 
  1348  0014                     	;# 
  1349  0015                     	;# 
  1350  0016                     	;# 
  1351  0016                     	;# 
  1352  0017                     	;# 
  1353  0018                     	;# 
  1354  0019                     	;# 
  1355  001A                     	;# 
  1356  001B                     	;# 
  1357  001C                     	;# 
  1358  008C                     	;# 
  1359  008D                     	;# 
  1360  008E                     	;# 
  1361  0090                     	;# 
  1362  0091                     	;# 
  1363  0092                     	;# 
  1364  0093                     	;# 
  1365  0094                     	;# 
  1366  0095                     	;# 
  1367  0096                     	;# 
  1368  0097                     	;# 
  1369  0098                     	;# 
  1370  0099                     	;# 
  1371  009A                     	;# 
  1372  009B                     	;# 
  1373  009B                     	;# 
  1374  009C                     	;# 
  1375  009D                     	;# 
  1376  009E                     	;# 
  1377  009F                     	;# 
  1378  010C                     	;# 
  1379  010D                     	;# 
  1380  010E                     	;# 
  1381  0111                     	;# 
  1382  0112                     	;# 
  1383  0113                     	;# 
  1384  0114                     	;# 
  1385  0115                     	;# 
  1386  0116                     	;# 
  1387  0117                     	;# 
  1388  0118                     	;# 
  1389  0119                     	;# 
  1390  011A                     	;# 
  1391  011B                     	;# 
  1392  011C                     	;# 
  1393  011D                     	;# 
  1394  011D                     	;# 
  1395  011D                     	;# 
  1396  011E                     	;# 
  1397  011F                     	;# 
  1398  018C                     	;# 
  1399  018D                     	;# 
  1400  018E                     	;# 
  1401  0191                     	;# 
  1402  0191                     	;# 
  1403  0192                     	;# 
  1404  0193                     	;# 
  1405  0193                     	;# 
  1406  0193                     	;# 
  1407  0194                     	;# 
  1408  0195                     	;# 
  1409  0196                     	;# 
  1410  0197                     	;# 
  1411  0199                     	;# 
  1412  0199                     	;# 
  1413  0199                     	;# 
  1414  019A                     	;# 
  1415  019A                     	;# 
  1416  019A                     	;# 
  1417  019B                     	;# 
  1418  019B                     	;# 
  1419  019B                     	;# 
  1420  019B                     	;# 
  1421  019B                     	;# 
  1422  019C                     	;# 
  1423  019C                     	;# 
  1424  019C                     	;# 
  1425  019D                     	;# 
  1426  019D                     	;# 
  1427  019D                     	;# 
  1428  019E                     	;# 
  1429  019E                     	;# 
  1430  019E                     	;# 
  1431  019F                     	;# 
  1432  019F                     	;# 
  1433  019F                     	;# 
  1434  019F                     	;# 
  1435  019F                     	;# 
  1436  020C                     	;# 
  1437  020D                     	;# 
  1438  020E                     	;# 
  1439  0210                     	;# 
  1440  0211                     	;# 
  1441  0211                     	;# 
  1442  0212                     	;# 
  1443  0212                     	;# 
  1444  0213                     	;# 
  1445  0213                     	;# 
  1446  0214                     	;# 
  1447  0214                     	;# 
  1448  0215                     	;# 
  1449  0215                     	;# 
  1450  0215                     	;# 
  1451  0215                     	;# 
  1452  0216                     	;# 
  1453  0216                     	;# 
  1454  0217                     	;# 
  1455  0217                     	;# 
  1456  028C                     	;# 
  1457  028D                     	;# 
  1458  028E                     	;# 
  1459  0291                     	;# 
  1460  0291                     	;# 
  1461  0292                     	;# 
  1462  0293                     	;# 
  1463  0298                     	;# 
  1464  0298                     	;# 
  1465  0299                     	;# 
  1466  029A                     	;# 
  1467  030C                     	;# 
  1468  030D                     	;# 
  1469  030E                     	;# 
  1470  0311                     	;# 
  1471  0311                     	;# 
  1472  0312                     	;# 
  1473  0313                     	;# 
  1474  038C                     	;# 
  1475  038D                     	;# 
  1476  038E                     	;# 
  1477  0390                     	;# 
  1478  0391                     	;# 
  1479  0392                     	;# 
  1480  0393                     	;# 
  1481  0394                     	;# 
  1482  0395                     	;# 
  1483  0396                     	;# 
  1484  0397                     	;# 
  1485  0398                     	;# 
  1486  0399                     	;# 
  1487  039D                     	;# 
  1488  039E                     	;# 
  1489  039F                     	;# 
  1490  0511                     	;# 
  1491  0513                     	;# 
  1492  051A                     	;# 
  1493  0591                     	;# 
  1494  0592                     	;# 
  1495  0593                     	;# 
  1496  0594                     	;# 
  1497  0595                     	;# 
  1498  0596                     	;# 
  1499  0E91                     	;# 
  1500  0E92                     	;# 
  1501  0E93                     	;# 
  1502  0E94                     	;# 
  1503  0E95                     	;# 
  1504  0E96                     	;# 
  1505  0E97                     	;# 
  1506  0E98                     	;# 
  1507  0E99                     	;# 
  1508  0E9A                     	;# 
  1509  0E9B                     	;# 
  1510  0E9C                     	;# 
  1511  0E9D                     	;# 
  1512  0E9E                     	;# 
  1513  0E9F                     	;# 
  1514  0EA0                     	;# 
  1515  0EA1                     	;# 
  1516  0EA1                     	;# 
  1517  0EA2                     	;# 
  1518  0EA3                     	;# 
  1519  0EA3                     	;# 
  1520  0EA4                     	;# 
  1521  0EA5                     	;# 
  1522  0EA5                     	;# 
  1523  0EA6                     	;# 
  1524  0EA7                     	;# 
  1525  0EA7                     	;# 
  1526  0EA8                     	;# 
  1527  0EA9                     	;# 
  1528  0EAA                     	;# 
  1529  0EAB                     	;# 
  1530  0EAC                     	;# 
  1531  0EAD                     	;# 
  1532  0EAE                     	;# 
  1533  0EAF                     	;# 
  1534  0EB1                     	;# 
  1535  0EB2                     	;# 
  1536  0EB3                     	;# 
  1537  0EB4                     	;# 
  1538  0EB5                     	;# 
  1539  0EB6                     	;# 
  1540  0EB7                     	;# 
  1541  0EB8                     	;# 
  1542  0EB9                     	;# 
  1543  0EBA                     	;# 
  1544  0EBB                     	;# 
  1545  0EBC                     	;# 
  1546  0EBD                     	;# 
  1547  0EBE                     	;# 
  1548  0EBF                     	;# 
  1549  0EC0                     	;# 
  1550  0EC1                     	;# 
  1551  0EC1                     	;# 
  1552  0EC2                     	;# 
  1553  0EC3                     	;# 
  1554  0EC3                     	;# 
  1555  0EC4                     	;# 
  1556  0EC5                     	;# 
  1557  0EC5                     	;# 
  1558  0EC6                     	;# 
  1559  0EC7                     	;# 
  1560  0EC7                     	;# 
  1561  0EC8                     	;# 
  1562  0EC9                     	;# 
  1563  0ECA                     	;# 
  1564  0ECB                     	;# 
  1565  0ECC                     	;# 
  1566  0ECD                     	;# 
  1567  0ECE                     	;# 
  1568  0ECF                     	;# 
  1569  0ED1                     	;# 
  1570  0ED2                     	;# 
  1571  0ED3                     	;# 
  1572  0ED4                     	;# 
  1573  0ED5                     	;# 
  1574  0ED6                     	;# 
  1575  0ED7                     	;# 
  1576  0ED8                     	;# 
  1577  0ED9                     	;# 
  1578  0EDA                     	;# 
  1579  0EDB                     	;# 
  1580  0EDC                     	;# 
  1581  0EDD                     	;# 
  1582  0EDE                     	;# 
  1583  0EDF                     	;# 
  1584  0EE0                     	;# 
  1585  0EE1                     	;# 
  1586  0EE1                     	;# 
  1587  0EE2                     	;# 
  1588  0EE3                     	;# 
  1589  0EE3                     	;# 
  1590  0EE4                     	;# 
  1591  0EE5                     	;# 
  1592  0EE5                     	;# 
  1593  0EE6                     	;# 
  1594  0EE7                     	;# 
  1595  0EE7                     	;# 
  1596  0EE8                     	;# 
  1597  0EE9                     	;# 
  1598  0EEA                     	;# 
  1599  0EEB                     	;# 
  1600  0EEC                     	;# 
  1601  0EED                     	;# 
  1602  0EEE                     	;# 
  1603  0EEF                     	;# 
  1604  0F11                     	;# 
  1605  0F12                     	;# 
  1606  0F13                     	;# 
  1607  0F14                     	;# 
  1608  0F15                     	;# 
  1609  0F16                     	;# 
  1610  0F17                     	;# 
  1611  0F18                     	;# 
  1612  0F19                     	;# 
  1613  0F1A                     	;# 
  1614  0F1B                     	;# 
  1615  0F1C                     	;# 
  1616  0F1D                     	;# 
  1617  0F1E                     	;# 
  1618  0F1F                     	;# 
  1619  0F20                     	;# 
  1620  0F21                     	;# 
  1621  0F21                     	;# 
  1622  0F22                     	;# 
  1623  0F23                     	;# 
  1624  0F23                     	;# 
  1625  0F24                     	;# 
  1626  0F25                     	;# 
  1627  0F25                     	;# 
  1628  0F26                     	;# 
  1629  0F27                     	;# 
  1630  0F27                     	;# 
  1631  0F28                     	;# 
  1632  0F29                     	;# 
  1633  0F2A                     	;# 
  1634  0F2B                     	;# 
  1635  0F2C                     	;# 
  1636  0F2D                     	;# 
  1637  0F2E                     	;# 
  1638  0F2F                     	;# 
  1639  0FE4                     	;# 
  1640  0FE5                     	;# 
  1641  0FE6                     	;# 
  1642  0FE7                     	;# 
  1643  0FE8                     	;# 
  1644  0FE9                     	;# 
  1645  0FEA                     	;# 
  1646  0FEB                     	;# 
  1647  0FED                     	;# 
  1648  0FEE                     	;# 
  1649  0FEF                     	;# 
  1650  0000                     	;# 
  1651  0001                     	;# 
  1652  0002                     	;# 
  1653  0003                     	;# 
  1654  0004                     	;# 
  1655  0005                     	;# 
  1656  0006                     	;# 
  1657  0007                     	;# 
  1658  0008                     	;# 
  1659  0009                     	;# 
  1660  000A                     	;# 
  1661  000B                     	;# 
  1662  000C                     	;# 
  1663  000D                     	;# 
  1664  000E                     	;# 
  1665  0010                     	;# 
  1666  0011                     	;# 
  1667  0012                     	;# 
  1668  0013                     	;# 
  1669  0014                     	;# 
  1670  0015                     	;# 
  1671  0016                     	;# 
  1672  0016                     	;# 
  1673  0017                     	;# 
  1674  0018                     	;# 
  1675  0019                     	;# 
  1676  001A                     	;# 
  1677  001B                     	;# 
  1678  001C                     	;# 
  1679  008C                     	;# 
  1680  008D                     	;# 
  1681  008E                     	;# 
  1682  0090                     	;# 
  1683  0091                     	;# 
  1684  0092                     	;# 
  1685  0093                     	;# 
  1686  0094                     	;# 
  1687  0095                     	;# 
  1688  0096                     	;# 
  1689  0097                     	;# 
  1690  0098                     	;# 
  1691  0099                     	;# 
  1692  009A                     	;# 
  1693  009B                     	;# 
  1694  009B                     	;# 
  1695  009C                     	;# 
  1696  009D                     	;# 
  1697  009E                     	;# 
  1698  009F                     	;# 
  1699  010C                     	;# 
  1700  010D                     	;# 
  1701  010E                     	;# 
  1702  0111                     	;# 
  1703  0112                     	;# 
  1704  0113                     	;# 
  1705  0114                     	;# 
  1706  0115                     	;# 
  1707  0116                     	;# 
  1708  0117                     	;# 
  1709  0118                     	;# 
  1710  0119                     	;# 
  1711  011A                     	;# 
  1712  011B                     	;# 
  1713  011C                     	;# 
  1714  011D                     	;# 
  1715  011D                     	;# 
  1716  011D                     	;# 
  1717  011E                     	;# 
  1718  011F                     	;# 
  1719  018C                     	;# 
  1720  018D                     	;# 
  1721  018E                     	;# 
  1722  0191                     	;# 
  1723  0191                     	;# 
  1724  0192                     	;# 
  1725  0193                     	;# 
  1726  0193                     	;# 
  1727  0193                     	;# 
  1728  0194                     	;# 
  1729  0195                     	;# 
  1730  0196                     	;# 
  1731  0197                     	;# 
  1732  0199                     	;# 
  1733  0199                     	;# 
  1734  0199                     	;# 
  1735  019A                     	;# 
  1736  019A                     	;# 
  1737  019A                     	;# 
  1738  019B                     	;# 
  1739  019B                     	;# 
  1740  019B                     	;# 
  1741  019B                     	;# 
  1742  019B                     	;# 
  1743  019C                     	;# 
  1744  019C                     	;# 
  1745  019C                     	;# 
  1746  019D                     	;# 
  1747  019D                     	;# 
  1748  019D                     	;# 
  1749  019E                     	;# 
  1750  019E                     	;# 
  1751  019E                     	;# 
  1752  019F                     	;# 
  1753  019F                     	;# 
  1754  019F                     	;# 
  1755  019F                     	;# 
  1756  019F                     	;# 
  1757  020C                     	;# 
  1758  020D                     	;# 
  1759  020E                     	;# 
  1760  0210                     	;# 
  1761  0211                     	;# 
  1762  0211                     	;# 
  1763  0212                     	;# 
  1764  0212                     	;# 
  1765  0213                     	;# 
  1766  0213                     	;# 
  1767  0214                     	;# 
  1768  0214                     	;# 
  1769  0215                     	;# 
  1770  0215                     	;# 
  1771  0215                     	;# 
  1772  0215                     	;# 
  1773  0216                     	;# 
  1774  0216                     	;# 
  1775  0217                     	;# 
  1776  0217                     	;# 
  1777  028C                     	;# 
  1778  028D                     	;# 
  1779  028E                     	;# 
  1780  0291                     	;# 
  1781  0291                     	;# 
  1782  0292                     	;# 
  1783  0293                     	;# 
  1784  0298                     	;# 
  1785  0298                     	;# 
  1786  0299                     	;# 
  1787  029A                     	;# 
  1788  030C                     	;# 
  1789  030D                     	;# 
  1790  030E                     	;# 
  1791  0311                     	;# 
  1792  0311                     	;# 
  1793  0312                     	;# 
  1794  0313                     	;# 
  1795  038C                     	;# 
  1796  038D                     	;# 
  1797  038E                     	;# 
  1798  0390                     	;# 
  1799  0391                     	;# 
  1800  0392                     	;# 
  1801  0393                     	;# 
  1802  0394                     	;# 
  1803  0395                     	;# 
  1804  0396                     	;# 
  1805  0397                     	;# 
  1806  0398                     	;# 
  1807  0399                     	;# 
  1808  039D                     	;# 
  1809  039E                     	;# 
  1810  039F                     	;# 
  1811  0511                     	;# 
  1812  0513                     	;# 
  1813  051A                     	;# 
  1814  0591                     	;# 
  1815  0592                     	;# 
  1816  0593                     	;# 
  1817  0594                     	;# 
  1818  0595                     	;# 
  1819  0596                     	;# 
  1820  0E91                     	;# 
  1821  0E92                     	;# 
  1822  0E93                     	;# 
  1823  0E94                     	;# 
  1824  0E95                     	;# 
  1825  0E96                     	;# 
  1826  0E97                     	;# 
  1827  0E98                     	;# 
  1828  0E99                     	;# 
  1829  0E9A                     	;# 
  1830  0E9B                     	;# 
  1831  0E9C                     	;# 
  1832  0E9D                     	;# 
  1833  0E9E                     	;# 
  1834  0E9F                     	;# 
  1835  0EA0                     	;# 
  1836  0EA1                     	;# 
  1837  0EA1                     	;# 
  1838  0EA2                     	;# 
  1839  0EA3                     	;# 
  1840  0EA3                     	;# 
  1841  0EA4                     	;# 
  1842  0EA5                     	;# 
  1843  0EA5                     	;# 
  1844  0EA6                     	;# 
  1845  0EA7                     	;# 
  1846  0EA7                     	;# 
  1847  0EA8                     	;# 
  1848  0EA9                     	;# 
  1849  0EAA                     	;# 
  1850  0EAB                     	;# 
  1851  0EAC                     	;# 
  1852  0EAD                     	;# 
  1853  0EAE                     	;# 
  1854  0EAF                     	;# 
  1855  0EB1                     	;# 
  1856  0EB2                     	;# 
  1857  0EB3                     	;# 
  1858  0EB4                     	;# 
  1859  0EB5                     	;# 
  1860  0EB6                     	;# 
  1861  0EB7                     	;# 
  1862  0EB8                     	;# 
  1863  0EB9                     	;# 
  1864  0EBA                     	;# 
  1865  0EBB                     	;# 
  1866  0EBC                     	;# 
  1867  0EBD                     	;# 
  1868  0EBE                     	;# 
  1869  0EBF                     	;# 
  1870  0EC0                     	;# 
  1871  0EC1                     	;# 
  1872  0EC1                     	;# 
  1873  0EC2                     	;# 
  1874  0EC3                     	;# 
  1875  0EC3                     	;# 
  1876  0EC4                     	;# 
  1877  0EC5                     	;# 
  1878  0EC5                     	;# 
  1879  0EC6                     	;# 
  1880  0EC7                     	;# 
  1881  0EC7                     	;# 
  1882  0EC8                     	;# 
  1883  0EC9                     	;# 
  1884  0ECA                     	;# 
  1885  0ECB                     	;# 
  1886  0ECC                     	;# 
  1887  0ECD                     	;# 
  1888  0ECE                     	;# 
  1889  0ECF                     	;# 
  1890  0ED1                     	;# 
  1891  0ED2                     	;# 
  1892  0ED3                     	;# 
  1893  0ED4                     	;# 
  1894  0ED5                     	;# 
  1895  0ED6                     	;# 
  1896  0ED7                     	;# 
  1897  0ED8                     	;# 
  1898  0ED9                     	;# 
  1899  0EDA                     	;# 
  1900  0EDB                     	;# 
  1901  0EDC                     	;# 
  1902  0EDD                     	;# 
  1903  0EDE                     	;# 
  1904  0EDF                     	;# 
  1905  0EE0                     	;# 
  1906  0EE1                     	;# 
  1907  0EE1                     	;# 
  1908  0EE2                     	;# 
  1909  0EE3                     	;# 
  1910  0EE3                     	;# 
  1911  0EE4                     	;# 
  1912  0EE5                     	;# 
  1913  0EE5                     	;# 
  1914  0EE6                     	;# 
  1915  0EE7                     	;# 
  1916  0EE7                     	;# 
  1917  0EE8                     	;# 
  1918  0EE9                     	;# 
  1919  0EEA                     	;# 
  1920  0EEB                     	;# 
  1921  0EEC                     	;# 
  1922  0EED                     	;# 
  1923  0EEE                     	;# 
  1924  0EEF                     	;# 
  1925  0F11                     	;# 
  1926  0F12                     	;# 
  1927  0F13                     	;# 
  1928  0F14                     	;# 
  1929  0F15                     	;# 
  1930  0F16                     	;# 
  1931  0F17                     	;# 
  1932  0F18                     	;# 
  1933  0F19                     	;# 
  1934  0F1A                     	;# 
  1935  0F1B                     	;# 
  1936  0F1C                     	;# 
  1937  0F1D                     	;# 
  1938  0F1E                     	;# 
  1939  0F1F                     	;# 
  1940  0F20                     	;# 
  1941  0F21                     	;# 
  1942  0F21                     	;# 
  1943  0F22                     	;# 
  1944  0F23                     	;# 
  1945  0F23                     	;# 
  1946  0F24                     	;# 
  1947  0F25                     	;# 
  1948  0F25                     	;# 
  1949  0F26                     	;# 
  1950  0F27                     	;# 
  1951  0F27                     	;# 
  1952  0F28                     	;# 
  1953  0F29                     	;# 
  1954  0F2A                     	;# 
  1955  0F2B                     	;# 
  1956  0F2C                     	;# 
  1957  0F2D                     	;# 
  1958  0F2E                     	;# 
  1959  0F2F                     	;# 
  1960  0FE4                     	;# 
  1961  0FE5                     	;# 
  1962  0FE6                     	;# 
  1963  0FE7                     	;# 
  1964  0FE8                     	;# 
  1965  0FE9                     	;# 
  1966  0FEA                     	;# 
  1967  0FEB                     	;# 
  1968  0FED                     	;# 
  1969  0FEE                     	;# 
  1970  0FEF                     	;# 
  1971  0000                     	;# 
  1972  0001                     	;# 
  1973  0002                     	;# 
  1974  0003                     	;# 
  1975  0004                     	;# 
  1976  0005                     	;# 
  1977  0006                     	;# 
  1978  0007                     	;# 
  1979  0008                     	;# 
  1980  0009                     	;# 
  1981  000A                     	;# 
  1982  000B                     	;# 
  1983  000C                     	;# 
  1984  000D                     	;# 
  1985  000E                     	;# 
  1986  0010                     	;# 
  1987  0011                     	;# 
  1988  0012                     	;# 
  1989  0013                     	;# 
  1990  0014                     	;# 
  1991  0015                     	;# 
  1992  0016                     	;# 
  1993  0016                     	;# 
  1994  0017                     	;# 
  1995  0018                     	;# 
  1996  0019                     	;# 
  1997  001A                     	;# 
  1998  001B                     	;# 
  1999  001C                     	;# 
  2000  008C                     	;# 
  2001  008D                     	;# 
  2002  008E                     	;# 
  2003  0090                     	;# 
  2004  0091                     	;# 
  2005  0092                     	;# 
  2006  0093                     	;# 
  2007  0094                     	;# 
  2008  0095                     	;# 
  2009  0096                     	;# 
  2010  0097                     	;# 
  2011  0098                     	;# 
  2012  0099                     	;# 
  2013  009A                     	;# 
  2014  009B                     	;# 
  2015  009B                     	;# 
  2016  009C                     	;# 
  2017  009D                     	;# 
  2018  009E                     	;# 
  2019  009F                     	;# 
  2020  010C                     	;# 
  2021  010D                     	;# 
  2022  010E                     	;# 
  2023  0111                     	;# 
  2024  0112                     	;# 
  2025  0113                     	;# 
  2026  0114                     	;# 
  2027  0115                     	;# 
  2028  0116                     	;# 
  2029  0117                     	;# 
  2030  0118                     	;# 
  2031  0119                     	;# 
  2032  011A                     	;# 
  2033  011B                     	;# 
  2034  011C                     	;# 
  2035  011D                     	;# 
  2036  011D                     	;# 
  2037  011D                     	;# 
  2038  011E                     	;# 
  2039  011F                     	;# 
  2040  018C                     	;# 
  2041  018D                     	;# 
  2042  018E                     	;# 
  2043  0191                     	;# 
  2044  0191                     	;# 
  2045  0192                     	;# 
  2046  0193                     	;# 
  2047  0193                     	;# 
  2048  0193                     	;# 
  2049  0194                     	;# 
  2050  0195                     	;# 
  2051  0196                     	;# 
  2052  0197                     	;# 
  2053  0199                     	;# 
  2054  0199                     	;# 
  2055  0199                     	;# 
  2056  019A                     	;# 
  2057  019A                     	;# 
  2058  019A                     	;# 
  2059  019B                     	;# 
  2060  019B                     	;# 
  2061  019B                     	;# 
  2062  019B                     	;# 
  2063  019B                     	;# 
  2064  019C                     	;# 
  2065  019C                     	;# 
  2066  019C                     	;# 
  2067  019D                     	;# 
  2068  019D                     	;# 
  2069  019D                     	;# 
  2070  019E                     	;# 
  2071  019E                     	;# 
  2072  019E                     	;# 
  2073  019F                     	;# 
  2074  019F                     	;# 
  2075  019F                     	;# 
  2076  019F                     	;# 
  2077  019F                     	;# 
  2078  020C                     	;# 
  2079  020D                     	;# 
  2080  020E                     	;# 
  2081  0210                     	;# 
  2082  0211                     	;# 
  2083  0211                     	;# 
  2084  0212                     	;# 
  2085  0212                     	;# 
  2086  0213                     	;# 
  2087  0213                     	;# 
  2088  0214                     	;# 
  2089  0214                     	;# 
  2090  0215                     	;# 
  2091  0215                     	;# 
  2092  0215                     	;# 
  2093  0215                     	;# 
  2094  0216                     	;# 
  2095  0216                     	;# 
  2096  0217                     	;# 
  2097  0217                     	;# 
  2098  028C                     	;# 
  2099  028D                     	;# 
  2100  028E                     	;# 
  2101  0291                     	;# 
  2102  0291                     	;# 
  2103  0292                     	;# 
  2104  0293                     	;# 
  2105  0298                     	;# 
  2106  0298                     	;# 
  2107  0299                     	;# 
  2108  029A                     	;# 
  2109  030C                     	;# 
  2110  030D                     	;# 
  2111  030E                     	;# 
  2112  0311                     	;# 
  2113  0311                     	;# 
  2114  0312                     	;# 
  2115  0313                     	;# 
  2116  038C                     	;# 
  2117  038D                     	;# 
  2118  038E                     	;# 
  2119  0390                     	;# 
  2120  0391                     	;# 
  2121  0392                     	;# 
  2122  0393                     	;# 
  2123  0394                     	;# 
  2124  0395                     	;# 
  2125  0396                     	;# 
  2126  0397                     	;# 
  2127  0398                     	;# 
  2128  0399                     	;# 
  2129  039D                     	;# 
  2130  039E                     	;# 
  2131  039F                     	;# 
  2132  0511                     	;# 
  2133  0513                     	;# 
  2134  051A                     	;# 
  2135  0591                     	;# 
  2136  0592                     	;# 
  2137  0593                     	;# 
  2138  0594                     	;# 
  2139  0595                     	;# 
  2140  0596                     	;# 
  2141  0E91                     	;# 
  2142  0E92                     	;# 
  2143  0E93                     	;# 
  2144  0E94                     	;# 
  2145  0E95                     	;# 
  2146  0E96                     	;# 
  2147  0E97                     	;# 
  2148  0E98                     	;# 
  2149  0E99                     	;# 
  2150  0E9A                     	;# 
  2151  0E9B                     	;# 
  2152  0E9C                     	;# 
  2153  0E9D                     	;# 
  2154  0E9E                     	;# 
  2155  0E9F                     	;# 
  2156  0EA0                     	;# 
  2157  0EA1                     	;# 
  2158  0EA1                     	;# 
  2159  0EA2                     	;# 
  2160  0EA3                     	;# 
  2161  0EA3                     	;# 
  2162  0EA4                     	;# 
  2163  0EA5                     	;# 
  2164  0EA5                     	;# 
  2165  0EA6                     	;# 
  2166  0EA7                     	;# 
  2167  0EA7                     	;# 
  2168  0EA8                     	;# 
  2169  0EA9                     	;# 
  2170  0EAA                     	;# 
  2171  0EAB                     	;# 
  2172  0EAC                     	;# 
  2173  0EAD                     	;# 
  2174  0EAE                     	;# 
  2175  0EAF                     	;# 
  2176  0EB1                     	;# 
  2177  0EB2                     	;# 
  2178  0EB3                     	;# 
  2179  0EB4                     	;# 
  2180  0EB5                     	;# 
  2181  0EB6                     	;# 
  2182  0EB7                     	;# 
  2183  0EB8                     	;# 
  2184  0EB9                     	;# 
  2185  0EBA                     	;# 
  2186  0EBB                     	;# 
  2187  0EBC                     	;# 
  2188  0EBD                     	;# 
  2189  0EBE                     	;# 
  2190  0EBF                     	;# 
  2191  0EC0                     	;# 
  2192  0EC1                     	;# 
  2193  0EC1                     	;# 
  2194  0EC2                     	;# 
  2195  0EC3                     	;# 
  2196  0EC3                     	;# 
  2197  0EC4                     	;# 
  2198  0EC5                     	;# 
  2199  0EC5                     	;# 
  2200  0EC6                     	;# 
  2201  0EC7                     	;# 
  2202  0EC7                     	;# 
  2203  0EC8                     	;# 
  2204  0EC9                     	;# 
  2205  0ECA                     	;# 
  2206  0ECB                     	;# 
  2207  0ECC                     	;# 
  2208  0ECD                     	;# 
  2209  0ECE                     	;# 
  2210  0ECF                     	;# 
  2211  0ED1                     	;# 
  2212  0ED2                     	;# 
  2213  0ED3                     	;# 
  2214  0ED4                     	;# 
  2215  0ED5                     	;# 
  2216  0ED6                     	;# 
  2217  0ED7                     	;# 
  2218  0ED8                     	;# 
  2219  0ED9                     	;# 
  2220  0EDA                     	;# 
  2221  0EDB                     	;# 
  2222  0EDC                     	;# 
  2223  0EDD                     	;# 
  2224  0EDE                     	;# 
  2225  0EDF                     	;# 
  2226  0EE0                     	;# 
  2227  0EE1                     	;# 
  2228  0EE1                     	;# 
  2229  0EE2                     	;# 
  2230  0EE3                     	;# 
  2231  0EE3                     	;# 
  2232  0EE4                     	;# 
  2233  0EE5                     	;# 
  2234  0EE5                     	;# 
  2235  0EE6                     	;# 
  2236  0EE7                     	;# 
  2237  0EE7                     	;# 
  2238  0EE8                     	;# 
  2239  0EE9                     	;# 
  2240  0EEA                     	;# 
  2241  0EEB                     	;# 
  2242  0EEC                     	;# 
  2243  0EED                     	;# 
  2244  0EEE                     	;# 
  2245  0EEF                     	;# 
  2246  0F11                     	;# 
  2247  0F12                     	;# 
  2248  0F13                     	;# 
  2249  0F14                     	;# 
  2250  0F15                     	;# 
  2251  0F16                     	;# 
  2252  0F17                     	;# 
  2253  0F18                     	;# 
  2254  0F19                     	;# 
  2255  0F1A                     	;# 
  2256  0F1B                     	;# 
  2257  0F1C                     	;# 
  2258  0F1D                     	;# 
  2259  0F1E                     	;# 
  2260  0F1F                     	;# 
  2261  0F20                     	;# 
  2262  0F21                     	;# 
  2263  0F21                     	;# 
  2264  0F22                     	;# 
  2265  0F23                     	;# 
  2266  0F23                     	;# 
  2267  0F24                     	;# 
  2268  0F25                     	;# 
  2269  0F25                     	;# 
  2270  0F26                     	;# 
  2271  0F27                     	;# 
  2272  0F27                     	;# 
  2273  0F28                     	;# 
  2274  0F29                     	;# 
  2275  0F2A                     	;# 
  2276  0F2B                     	;# 
  2277  0F2C                     	;# 
  2278  0F2D                     	;# 
  2279  0F2E                     	;# 
  2280  0F2F                     	;# 
  2281  0FE4                     	;# 
  2282  0FE5                     	;# 
  2283  0FE6                     	;# 
  2284  0FE7                     	;# 
  2285  0FE8                     	;# 
  2286  0FE9                     	;# 
  2287  0FEA                     	;# 
  2288  0FEB                     	;# 
  2289  0FED                     	;# 
  2290  0FEE                     	;# 
  2291  0FEF                     	;# 
  2292  0000                     	;# 
  2293  0001                     	;# 
  2294  0002                     	;# 
  2295  0003                     	;# 
  2296  0004                     	;# 
  2297  0005                     	;# 
  2298  0006                     	;# 
  2299  0007                     	;# 
  2300  0008                     	;# 
  2301  0009                     	;# 
  2302  000A                     	;# 
  2303  000B                     	;# 
  2304  000C                     	;# 
  2305  000D                     	;# 
  2306  000E                     	;# 
  2307  0010                     	;# 
  2308  0011                     	;# 
  2309  0012                     	;# 
  2310  0013                     	;# 
  2311  0014                     	;# 
  2312  0015                     	;# 
  2313  0016                     	;# 
  2314  0016                     	;# 
  2315  0017                     	;# 
  2316  0018                     	;# 
  2317  0019                     	;# 
  2318  001A                     	;# 
  2319  001B                     	;# 
  2320  001C                     	;# 
  2321  008C                     	;# 
  2322  008D                     	;# 
  2323  008E                     	;# 
  2324  0090                     	;# 
  2325  0091                     	;# 
  2326  0092                     	;# 
  2327  0093                     	;# 
  2328  0094                     	;# 
  2329  0095                     	;# 
  2330  0096                     	;# 
  2331  0097                     	;# 
  2332  0098                     	;# 
  2333  0099                     	;# 
  2334  009A                     	;# 
  2335  009B                     	;# 
  2336  009B                     	;# 
  2337  009C                     	;# 
  2338  009D                     	;# 
  2339  009E                     	;# 
  2340  009F                     	;# 
  2341  010C                     	;# 
  2342  010D                     	;# 
  2343  010E                     	;# 
  2344  0111                     	;# 
  2345  0112                     	;# 
  2346  0113                     	;# 
  2347  0114                     	;# 
  2348  0115                     	;# 
  2349  0116                     	;# 
  2350  0117                     	;# 
  2351  0118                     	;# 
  2352  0119                     	;# 
  2353  011A                     	;# 
  2354  011B                     	;# 
  2355  011C                     	;# 
  2356  011D                     	;# 
  2357  011D                     	;# 
  2358  011D                     	;# 
  2359  011E                     	;# 
  2360  011F                     	;# 
  2361  018C                     	;# 
  2362  018D                     	;# 
  2363  018E                     	;# 
  2364  0191                     	;# 
  2365  0191                     	;# 
  2366  0192                     	;# 
  2367  0193                     	;# 
  2368  0193                     	;# 
  2369  0193                     	;# 
  2370  0194                     	;# 
  2371  0195                     	;# 
  2372  0196                     	;# 
  2373  0197                     	;# 
  2374  0199                     	;# 
  2375  0199                     	;# 
  2376  0199                     	;# 
  2377  019A                     	;# 
  2378  019A                     	;# 
  2379  019A                     	;# 
  2380  019B                     	;# 
  2381  019B                     	;# 
  2382  019B                     	;# 
  2383  019B                     	;# 
  2384  019B                     	;# 
  2385  019C                     	;# 
  2386  019C                     	;# 
  2387  019C                     	;# 
  2388  019D                     	;# 
  2389  019D                     	;# 
  2390  019D                     	;# 
  2391  019E                     	;# 
  2392  019E                     	;# 
  2393  019E                     	;# 
  2394  019F                     	;# 
  2395  019F                     	;# 
  2396  019F                     	;# 
  2397  019F                     	;# 
  2398  019F                     	;# 
  2399  020C                     	;# 
  2400  020D                     	;# 
  2401  020E                     	;# 
  2402  0210                     	;# 
  2403  0211                     	;# 
  2404  0211                     	;# 
  2405  0212                     	;# 
  2406  0212                     	;# 
  2407  0213                     	;# 
  2408  0213                     	;# 
  2409  0214                     	;# 
  2410  0214                     	;# 
  2411  0215                     	;# 
  2412  0215                     	;# 
  2413  0215                     	;# 
  2414  0215                     	;# 
  2415  0216                     	;# 
  2416  0216                     	;# 
  2417  0217                     	;# 
  2418  0217                     	;# 
  2419  028C                     	;# 
  2420  028D                     	;# 
  2421  028E                     	;# 
  2422  0291                     	;# 
  2423  0291                     	;# 
  2424  0292                     	;# 
  2425  0293                     	;# 
  2426  0298                     	;# 
  2427  0298                     	;# 
  2428  0299                     	;# 
  2429  029A                     	;# 
  2430  030C                     	;# 
  2431  030D                     	;# 
  2432  030E                     	;# 
  2433  0311                     	;# 
  2434  0311                     	;# 
  2435  0312                     	;# 
  2436  0313                     	;# 
  2437  038C                     	;# 
  2438  038D                     	;# 
  2439  038E                     	;# 
  2440  0390                     	;# 
  2441  0391                     	;# 
  2442  0392                     	;# 
  2443  0393                     	;# 
  2444  0394                     	;# 
  2445  0395                     	;# 
  2446  0396                     	;# 
  2447  0397                     	;# 
  2448  0398                     	;# 
  2449  0399                     	;# 
  2450  039D                     	;# 
  2451  039E                     	;# 
  2452  039F                     	;# 
  2453  0511                     	;# 
  2454  0513                     	;# 
  2455  051A                     	;# 
  2456  0591                     	;# 
  2457  0592                     	;# 
  2458  0593                     	;# 
  2459  0594                     	;# 
  2460  0595                     	;# 
  2461  0596                     	;# 
  2462  0E91                     	;# 
  2463  0E92                     	;# 
  2464  0E93                     	;# 
  2465  0E94                     	;# 
  2466  0E95                     	;# 
  2467  0E96                     	;# 
  2468  0E97                     	;# 
  2469  0E98                     	;# 
  2470  0E99                     	;# 
  2471  0E9A                     	;# 
  2472  0E9B                     	;# 
  2473  0E9C                     	;# 
  2474  0E9D                     	;# 
  2475  0E9E                     	;# 
  2476  0E9F                     	;# 
  2477  0EA0                     	;# 
  2478  0EA1                     	;# 
  2479  0EA1                     	;# 
  2480  0EA2                     	;# 
  2481  0EA3                     	;# 
  2482  0EA3                     	;# 
  2483  0EA4                     	;# 
  2484  0EA5                     	;# 
  2485  0EA5                     	;# 
  2486  0EA6                     	;# 
  2487  0EA7                     	;# 
  2488  0EA7                     	;# 
  2489  0EA8                     	;# 
  2490  0EA9                     	;# 
  2491  0EAA                     	;# 
  2492  0EAB                     	;# 
  2493  0EAC                     	;# 
  2494  0EAD                     	;# 
  2495  0EAE                     	;# 
  2496  0EAF                     	;# 
  2497  0EB1                     	;# 
  2498  0EB2                     	;# 
  2499  0EB3                     	;# 
  2500  0EB4                     	;# 
  2501  0EB5                     	;# 
  2502  0EB6                     	;# 
  2503  0EB7                     	;# 
  2504  0EB8                     	;# 
  2505  0EB9                     	;# 
  2506  0EBA                     	;# 
  2507  0EBB                     	;# 
  2508  0EBC                     	;# 
  2509  0EBD                     	;# 
  2510  0EBE                     	;# 
  2511  0EBF                     	;# 
  2512  0EC0                     	;# 
  2513  0EC1                     	;# 
  2514  0EC1                     	;# 
  2515  0EC2                     	;# 
  2516  0EC3                     	;# 
  2517  0EC3                     	;# 
  2518  0EC4                     	;# 
  2519  0EC5                     	;# 
  2520  0EC5                     	;# 
  2521  0EC6                     	;# 
  2522  0EC7                     	;# 
  2523  0EC7                     	;# 
  2524  0EC8                     	;# 
  2525  0EC9                     	;# 
  2526  0ECA                     	;# 
  2527  0ECB                     	;# 
  2528  0ECC                     	;# 
  2529  0ECD                     	;# 
  2530  0ECE                     	;# 
  2531  0ECF                     	;# 
  2532  0ED1                     	;# 
  2533  0ED2                     	;# 
  2534  0ED3                     	;# 
  2535  0ED4                     	;# 
  2536  0ED5                     	;# 
  2537  0ED6                     	;# 
  2538  0ED7                     	;# 
  2539  0ED8                     	;# 
  2540  0ED9                     	;# 
  2541  0EDA                     	;# 
  2542  0EDB                     	;# 
  2543  0EDC                     	;# 
  2544  0EDD                     	;# 
  2545  0EDE                     	;# 
  2546  0EDF                     	;# 
  2547  0EE0                     	;# 
  2548  0EE1                     	;# 
  2549  0EE1                     	;# 
  2550  0EE2                     	;# 
  2551  0EE3                     	;# 
  2552  0EE3                     	;# 
  2553  0EE4                     	;# 
  2554  0EE5                     	;# 
  2555  0EE5                     	;# 
  2556  0EE6                     	;# 
  2557  0EE7                     	;# 
  2558  0EE7                     	;# 
  2559  0EE8                     	;# 
  2560  0EE9                     	;# 
  2561  0EEA                     	;# 
  2562  0EEB                     	;# 
  2563  0EEC                     	;# 
  2564  0EED                     	;# 
  2565  0EEE                     	;# 
  2566  0EEF                     	;# 
  2567  0F11                     	;# 
  2568  0F12                     	;# 
  2569  0F13                     	;# 
  2570  0F14                     	;# 
  2571  0F15                     	;# 
  2572  0F16                     	;# 
  2573  0F17                     	;# 
  2574  0F18                     	;# 
  2575  0F19                     	;# 
  2576  0F1A                     	;# 
  2577  0F1B                     	;# 
  2578  0F1C                     	;# 
  2579  0F1D                     	;# 
  2580  0F1E                     	;# 
  2581  0F1F                     	;# 
  2582  0F20                     	;# 
  2583  0F21                     	;# 
  2584  0F21                     	;# 
  2585  0F22                     	;# 
  2586  0F23                     	;# 
  2587  0F23                     	;# 
  2588  0F24                     	;# 
  2589  0F25                     	;# 
  2590  0F25                     	;# 
  2591  0F26                     	;# 
  2592  0F27                     	;# 
  2593  0F27                     	;# 
  2594  0F28                     	;# 
  2595  0F29                     	;# 
  2596  0F2A                     	;# 
  2597  0F2B                     	;# 
  2598  0F2C                     	;# 
  2599  0F2D                     	;# 
  2600  0F2E                     	;# 
  2601  0F2F                     	;# 
  2602  0FE4                     	;# 
  2603  0FE5                     	;# 
  2604  0FE6                     	;# 
  2605  0FE7                     	;# 
  2606  0FE8                     	;# 
  2607  0FE9                     	;# 
  2608  0FEA                     	;# 
  2609  0FEB                     	;# 
  2610  0FED                     	;# 
  2611  0FEE                     	;# 
  2612  0FEF                     	;# 
  2613  0000                     	;# 
  2614  0001                     	;# 
  2615  0002                     	;# 
  2616  0003                     	;# 
  2617  0004                     	;# 
  2618  0005                     	;# 
  2619  0006                     	;# 
  2620  0007                     	;# 
  2621  0008                     	;# 
  2622  0009                     	;# 
  2623  000A                     	;# 
  2624  000B                     	;# 
  2625  000C                     	;# 
  2626  000D                     	;# 
  2627  000E                     	;# 
  2628  0010                     	;# 
  2629  0011                     	;# 
  2630  0012                     	;# 
  2631  0013                     	;# 
  2632  0014                     	;# 
  2633  0015                     	;# 
  2634  0016                     	;# 
  2635  0016                     	;# 
  2636  0017                     	;# 
  2637  0018                     	;# 
  2638  0019                     	;# 
  2639  001A                     	;# 
  2640  001B                     	;# 
  2641  001C                     	;# 
  2642  008C                     	;# 
  2643  008D                     	;# 
  2644  008E                     	;# 
  2645  0090                     	;# 
  2646  0091                     	;# 
  2647  0092                     	;# 
  2648  0093                     	;# 
  2649  0094                     	;# 
  2650  0095                     	;# 
  2651  0096                     	;# 
  2652  0097                     	;# 
  2653  0098                     	;# 
  2654  0099                     	;# 
  2655  009A                     	;# 
  2656  009B                     	;# 
  2657  009B                     	;# 
  2658  009C                     	;# 
  2659  009D                     	;# 
  2660  009E                     	;# 
  2661  009F                     	;# 
  2662  010C                     	;# 
  2663  010D                     	;# 
  2664  010E                     	;# 
  2665  0111                     	;# 
  2666  0112                     	;# 
  2667  0113                     	;# 
  2668  0114                     	;# 
  2669  0115                     	;# 
  2670  0116                     	;# 
  2671  0117                     	;# 
  2672  0118                     	;# 
  2673  0119                     	;# 
  2674  011A                     	;# 
  2675  011B                     	;# 
  2676  011C                     	;# 
  2677  011D                     	;# 
  2678  011D                     	;# 
  2679  011D                     	;# 
  2680  011E                     	;# 
  2681  011F                     	;# 
  2682  018C                     	;# 
  2683  018D                     	;# 
  2684  018E                     	;# 
  2685  0191                     	;# 
  2686  0191                     	;# 
  2687  0192                     	;# 
  2688  0193                     	;# 
  2689  0193                     	;# 
  2690  0193                     	;# 
  2691  0194                     	;# 
  2692  0195                     	;# 
  2693  0196                     	;# 
  2694  0197                     	;# 
  2695  0199                     	;# 
  2696  0199                     	;# 
  2697  0199                     	;# 
  2698  019A                     	;# 
  2699  019A                     	;# 
  2700  019A                     	;# 
  2701  019B                     	;# 
  2702  019B                     	;# 
  2703  019B                     	;# 
  2704  019B                     	;# 
  2705  019B                     	;# 
  2706  019C                     	;# 
  2707  019C                     	;# 
  2708  019C                     	;# 
  2709  019D                     	;# 
  2710  019D                     	;# 
  2711  019D                     	;# 
  2712  019E                     	;# 
  2713  019E                     	;# 
  2714  019E                     	;# 
  2715  019F                     	;# 
  2716  019F                     	;# 
  2717  019F                     	;# 
  2718  019F                     	;# 
  2719  019F                     	;# 
  2720  020C                     	;# 
  2721  020D                     	;# 
  2722  020E                     	;# 
  2723  0210                     	;# 
  2724  0211                     	;# 
  2725  0211                     	;# 
  2726  0212                     	;# 
  2727  0212                     	;# 
  2728  0213                     	;# 
  2729  0213                     	;# 
  2730  0214                     	;# 
  2731  0214                     	;# 
  2732  0215                     	;# 
  2733  0215                     	;# 
  2734  0215                     	;# 
  2735  0215                     	;# 
  2736  0216                     	;# 
  2737  0216                     	;# 
  2738  0217                     	;# 
  2739  0217                     	;# 
  2740  028C                     	;# 
  2741  028D                     	;# 
  2742  028E                     	;# 
  2743  0291                     	;# 
  2744  0291                     	;# 
  2745  0292                     	;# 
  2746  0293                     	;# 
  2747  0298                     	;# 
  2748  0298                     	;# 
  2749  0299                     	;# 
  2750  029A                     	;# 
  2751  030C                     	;# 
  2752  030D                     	;# 
  2753  030E                     	;# 
  2754  0311                     	;# 
  2755  0311                     	;# 
  2756  0312                     	;# 
  2757  0313                     	;# 
  2758  038C                     	;# 
  2759  038D                     	;# 
  2760  038E                     	;# 
  2761  0390                     	;# 
  2762  0391                     	;# 
  2763  0392                     	;# 
  2764  0393                     	;# 
  2765  0394                     	;# 
  2766  0395                     	;# 
  2767  0396                     	;# 
  2768  0397                     	;# 
  2769  0398                     	;# 
  2770  0399                     	;# 
  2771  039D                     	;# 
  2772  039E                     	;# 
  2773  039F                     	;# 
  2774  0511                     	;# 
  2775  0513                     	;# 
  2776  051A                     	;# 
  2777  0591                     	;# 
  2778  0592                     	;# 
  2779  0593                     	;# 
  2780  0594                     	;# 
  2781  0595                     	;# 
  2782  0596                     	;# 
  2783  0E91                     	;# 
  2784  0E92                     	;# 
  2785  0E93                     	;# 
  2786  0E94                     	;# 
  2787  0E95                     	;# 
  2788  0E96                     	;# 
  2789  0E97                     	;# 
  2790  0E98                     	;# 
  2791  0E99                     	;# 
  2792  0E9A                     	;# 
  2793  0E9B                     	;# 
  2794  0E9C                     	;# 
  2795  0E9D                     	;# 
  2796  0E9E                     	;# 
  2797  0E9F                     	;# 
  2798  0EA0                     	;# 
  2799  0EA1                     	;# 
  2800  0EA1                     	;# 
  2801  0EA2                     	;# 
  2802  0EA3                     	;# 
  2803  0EA3                     	;# 
  2804  0EA4                     	;# 
  2805  0EA5                     	;# 
  2806  0EA5                     	;# 
  2807  0EA6                     	;# 
  2808  0EA7                     	;# 
  2809  0EA7                     	;# 
  2810  0EA8                     	;# 
  2811  0EA9                     	;# 
  2812  0EAA                     	;# 
  2813  0EAB                     	;# 
  2814  0EAC                     	;# 
  2815  0EAD                     	;# 
  2816  0EAE                     	;# 
  2817  0EAF                     	;# 
  2818  0EB1                     	;# 
  2819  0EB2                     	;# 
  2820  0EB3                     	;# 
  2821  0EB4                     	;# 
  2822  0EB5                     	;# 
  2823  0EB6                     	;# 
  2824  0EB7                     	;# 
  2825  0EB8                     	;# 
  2826  0EB9                     	;# 
  2827  0EBA                     	;# 
  2828  0EBB                     	;# 
  2829  0EBC                     	;# 
  2830  0EBD                     	;# 
  2831  0EBE                     	;# 
  2832  0EBF                     	;# 
  2833  0EC0                     	;# 
  2834  0EC1                     	;# 
  2835  0EC1                     	;# 
  2836  0EC2                     	;# 
  2837  0EC3                     	;# 
  2838  0EC3                     	;# 
  2839  0EC4                     	;# 
  2840  0EC5                     	;# 
  2841  0EC5                     	;# 
  2842  0EC6                     	;# 
  2843  0EC7                     	;# 
  2844  0EC7                     	;# 
  2845  0EC8                     	;# 
  2846  0EC9                     	;# 
  2847  0ECA                     	;# 
  2848  0ECB                     	;# 
  2849  0ECC                     	;# 
  2850  0ECD                     	;# 
  2851  0ECE                     	;# 
  2852  0ECF                     	;# 
  2853  0ED1                     	;# 
  2854  0ED2                     	;# 
  2855  0ED3                     	;# 
  2856  0ED4                     	;# 
  2857  0ED5                     	;# 
  2858  0ED6                     	;# 
  2859  0ED7                     	;# 
  2860  0ED8                     	;# 
  2861  0ED9                     	;# 
  2862  0EDA                     	;# 
  2863  0EDB                     	;# 
  2864  0EDC                     	;# 
  2865  0EDD                     	;# 
  2866  0EDE                     	;# 
  2867  0EDF                     	;# 
  2868  0EE0                     	;# 
  2869  0EE1                     	;# 
  2870  0EE1                     	;# 
  2871  0EE2                     	;# 
  2872  0EE3                     	;# 
  2873  0EE3                     	;# 
  2874  0EE4                     	;# 
  2875  0EE5                     	;# 
  2876  0EE5                     	;# 
  2877  0EE6                     	;# 
  2878  0EE7                     	;# 
  2879  0EE7                     	;# 
  2880  0EE8                     	;# 
  2881  0EE9                     	;# 
  2882  0EEA                     	;# 
  2883  0EEB                     	;# 
  2884  0EEC                     	;# 
  2885  0EED                     	;# 
  2886  0EEE                     	;# 
  2887  0EEF                     	;# 
  2888  0F11                     	;# 
  2889  0F12                     	;# 
  2890  0F13                     	;# 
  2891  0F14                     	;# 
  2892  0F15                     	;# 
  2893  0F16                     	;# 
  2894  0F17                     	;# 
  2895  0F18                     	;# 
  2896  0F19                     	;# 
  2897  0F1A                     	;# 
  2898  0F1B                     	;# 
  2899  0F1C                     	;# 
  2900  0F1D                     	;# 
  2901  0F1E                     	;# 
  2902  0F1F                     	;# 
  2903  0F20                     	;# 
  2904  0F21                     	;# 
  2905  0F21                     	;# 
  2906  0F22                     	;# 
  2907  0F23                     	;# 
  2908  0F23                     	;# 
  2909  0F24                     	;# 
  2910  0F25                     	;# 
  2911  0F25                     	;# 
  2912  0F26                     	;# 
  2913  0F27                     	;# 
  2914  0F27                     	;# 
  2915  0F28                     	;# 
  2916  0F29                     	;# 
  2917  0F2A                     	;# 
  2918  0F2B                     	;# 
  2919  0F2C                     	;# 
  2920  0F2D                     	;# 
  2921  0F2E                     	;# 
  2922  0F2F                     	;# 
  2923  0FE4                     	;# 
  2924  0FE5                     	;# 
  2925  0FE6                     	;# 
  2926  0FE7                     	;# 
  2927  0FE8                     	;# 
  2928  0FE9                     	;# 
  2929  0FEA                     	;# 
  2930  0FEB                     	;# 
  2931  0FED                     	;# 
  2932  0FEE                     	;# 
  2933  0FEF                     	;# 
  2934  0000                     	;# 
  2935  0001                     	;# 
  2936  0002                     	;# 
  2937  0003                     	;# 
  2938  0004                     	;# 
  2939  0005                     	;# 
  2940  0006                     	;# 
  2941  0007                     	;# 
  2942  0008                     	;# 
  2943  0009                     	;# 
  2944  000A                     	;# 
  2945  000B                     	;# 
  2946  000C                     	;# 
  2947  000D                     	;# 
  2948  000E                     	;# 
  2949  0010                     	;# 
  2950  0011                     	;# 
  2951  0012                     	;# 
  2952  0013                     	;# 
  2953  0014                     	;# 
  2954  0015                     	;# 
  2955  0016                     	;# 
  2956  0016                     	;# 
  2957  0017                     	;# 
  2958  0018                     	;# 
  2959  0019                     	;# 
  2960  001A                     	;# 
  2961  001B                     	;# 
  2962  001C                     	;# 
  2963  008C                     	;# 
  2964  008D                     	;# 
  2965  008E                     	;# 
  2966  0090                     	;# 
  2967  0091                     	;# 
  2968  0092                     	;# 
  2969  0093                     	;# 
  2970  0094                     	;# 
  2971  0095                     	;# 
  2972  0096                     	;# 
  2973  0097                     	;# 
  2974  0098                     	;# 
  2975  0099                     	;# 
  2976  009A                     	;# 
  2977  009B                     	;# 
  2978  009B                     	;# 
  2979  009C                     	;# 
  2980  009D                     	;# 
  2981  009E                     	;# 
  2982  009F                     	;# 
  2983  010C                     	;# 
  2984  010D                     	;# 
  2985  010E                     	;# 
  2986  0111                     	;# 
  2987  0112                     	;# 
  2988  0113                     	;# 
  2989  0114                     	;# 
  2990  0115                     	;# 
  2991  0116                     	;# 
  2992  0117                     	;# 
  2993  0118                     	;# 
  2994  0119                     	;# 
  2995  011A                     	;# 
  2996  011B                     	;# 
  2997  011C                     	;# 
  2998  011D                     	;# 
  2999  011D                     	;# 
  3000  011D                     	;# 
  3001  011E                     	;# 
  3002  011F                     	;# 
  3003  018C                     	;# 
  3004  018D                     	;# 
  3005  018E                     	;# 
  3006  0191                     	;# 
  3007  0191                     	;# 
  3008  0192                     	;# 
  3009  0193                     	;# 
  3010  0193                     	;# 
  3011  0193                     	;# 
  3012  0194                     	;# 
  3013  0195                     	;# 
  3014  0196                     	;# 
  3015  0197                     	;# 
  3016  0199                     	;# 
  3017  0199                     	;# 
  3018  0199                     	;# 
  3019  019A                     	;# 
  3020  019A                     	;# 
  3021  019A                     	;# 
  3022  019B                     	;# 
  3023  019B                     	;# 
  3024  019B                     	;# 
  3025  019B                     	;# 
  3026  019B                     	;# 
  3027  019C                     	;# 
  3028  019C                     	;# 
  3029  019C                     	;# 
  3030  019D                     	;# 
  3031  019D                     	;# 
  3032  019D                     	;# 
  3033  019E                     	;# 
  3034  019E                     	;# 
  3035  019E                     	;# 
  3036  019F                     	;# 
  3037  019F                     	;# 
  3038  019F                     	;# 
  3039  019F                     	;# 
  3040  019F                     	;# 
  3041  020C                     	;# 
  3042  020D                     	;# 
  3043  020E                     	;# 
  3044  0210                     	;# 
  3045  0211                     	;# 
  3046  0211                     	;# 
  3047  0212                     	;# 
  3048  0212                     	;# 
  3049  0213                     	;# 
  3050  0213                     	;# 
  3051  0214                     	;# 
  3052  0214                     	;# 
  3053  0215                     	;# 
  3054  0215                     	;# 
  3055  0215                     	;# 
  3056  0215                     	;# 
  3057  0216                     	;# 
  3058  0216                     	;# 
  3059  0217                     	;# 
  3060  0217                     	;# 
  3061  028C                     	;# 
  3062  028D                     	;# 
  3063  028E                     	;# 
  3064  0291                     	;# 
  3065  0291                     	;# 
  3066  0292                     	;# 
  3067  0293                     	;# 
  3068  0298                     	;# 
  3069  0298                     	;# 
  3070  0299                     	;# 
  3071  029A                     	;# 
  3072  030C                     	;# 
  3073  030D                     	;# 
  3074  030E                     	;# 
  3075  0311                     	;# 
  3076  0311                     	;# 
  3077  0312                     	;# 
  3078  0313                     	;# 
  3079  038C                     	;# 
  3080  038D                     	;# 
  3081  038E                     	;# 
  3082  0390                     	;# 
  3083  0391                     	;# 
  3084  0392                     	;# 
  3085  0393                     	;# 
  3086  0394                     	;# 
  3087  0395                     	;# 
  3088  0396                     	;# 
  3089  0397                     	;# 
  3090  0398                     	;# 
  3091  0399                     	;# 
  3092  039D                     	;# 
  3093  039E                     	;# 
  3094  039F                     	;# 
  3095  0511                     	;# 
  3096  0513                     	;# 
  3097  051A                     	;# 
  3098  0591                     	;# 
  3099  0592                     	;# 
  3100  0593                     	;# 
  3101  0594                     	;# 
  3102  0595                     	;# 
  3103  0596                     	;# 
  3104  0E91                     	;# 
  3105  0E92                     	;# 
  3106  0E93                     	;# 
  3107  0E94                     	;# 
  3108  0E95                     	;# 
  3109  0E96                     	;# 
  3110  0E97                     	;# 
  3111  0E98                     	;# 
  3112  0E99                     	;# 
  3113  0E9A                     	;# 
  3114  0E9B                     	;# 
  3115  0E9C                     	;# 
  3116  0E9D                     	;# 
  3117  0E9E                     	;# 
  3118  0E9F                     	;# 
  3119  0EA0                     	;# 
  3120  0EA1                     	;# 
  3121  0EA1                     	;# 
  3122  0EA2                     	;# 
  3123  0EA3                     	;# 
  3124  0EA3                     	;# 
  3125  0EA4                     	;# 
  3126  0EA5                     	;# 
  3127  0EA5                     	;# 
  3128  0EA6                     	;# 
  3129  0EA7                     	;# 
  3130  0EA7                     	;# 
  3131  0EA8                     	;# 
  3132  0EA9                     	;# 
  3133  0EAA                     	;# 
  3134  0EAB                     	;# 
  3135  0EAC                     	;# 
  3136  0EAD                     	;# 
  3137  0EAE                     	;# 
  3138  0EAF                     	;# 
  3139  0EB1                     	;# 
  3140  0EB2                     	;# 
  3141  0EB3                     	;# 
  3142  0EB4                     	;# 
  3143  0EB5                     	;# 
  3144  0EB6                     	;# 
  3145  0EB7                     	;# 
  3146  0EB8                     	;# 
  3147  0EB9                     	;# 
  3148  0EBA                     	;# 
  3149  0EBB                     	;# 
  3150  0EBC                     	;# 
  3151  0EBD                     	;# 
  3152  0EBE                     	;# 
  3153  0EBF                     	;# 
  3154  0EC0                     	;# 
  3155  0EC1                     	;# 
  3156  0EC1                     	;# 
  3157  0EC2                     	;# 
  3158  0EC3                     	;# 
  3159  0EC3                     	;# 
  3160  0EC4                     	;# 
  3161  0EC5                     	;# 
  3162  0EC5                     	;# 
  3163  0EC6                     	;# 
  3164  0EC7                     	;# 
  3165  0EC7                     	;# 
  3166  0EC8                     	;# 
  3167  0EC9                     	;# 
  3168  0ECA                     	;# 
  3169  0ECB                     	;# 
  3170  0ECC                     	;# 
  3171  0ECD                     	;# 
  3172  0ECE                     	;# 
  3173  0ECF                     	;# 
  3174  0ED1                     	;# 
  3175  0ED2                     	;# 
  3176  0ED3                     	;# 
  3177  0ED4                     	;# 
  3178  0ED5                     	;# 
  3179  0ED6                     	;# 
  3180  0ED7                     	;# 
  3181  0ED8                     	;# 
  3182  0ED9                     	;# 
  3183  0EDA                     	;# 
  3184  0EDB                     	;# 
  3185  0EDC                     	;# 
  3186  0EDD                     	;# 
  3187  0EDE                     	;# 
  3188  0EDF                     	;# 
  3189  0EE0                     	;# 
  3190  0EE1                     	;# 
  3191  0EE1                     	;# 
  3192  0EE2                     	;# 
  3193  0EE3                     	;# 
  3194  0EE3                     	;# 
  3195  0EE4                     	;# 
  3196  0EE5                     	;# 
  3197  0EE5                     	;# 
  3198  0EE6                     	;# 
  3199  0EE7                     	;# 
  3200  0EE7                     	;# 
  3201  0EE8                     	;# 
  3202  0EE9                     	;# 
  3203  0EEA                     	;# 
  3204  0EEB                     	;# 
  3205  0EEC                     	;# 
  3206  0EED                     	;# 
  3207  0EEE                     	;# 
  3208  0EEF                     	;# 
  3209  0F11                     	;# 
  3210  0F12                     	;# 
  3211  0F13                     	;# 
  3212  0F14                     	;# 
  3213  0F15                     	;# 
  3214  0F16                     	;# 
  3215  0F17                     	;# 
  3216  0F18                     	;# 
  3217  0F19                     	;# 
  3218  0F1A                     	;# 
  3219  0F1B                     	;# 
  3220  0F1C                     	;# 
  3221  0F1D                     	;# 
  3222  0F1E                     	;# 
  3223  0F1F                     	;# 
  3224  0F20                     	;# 
  3225  0F21                     	;# 
  3226  0F21                     	;# 
  3227  0F22                     	;# 
  3228  0F23                     	;# 
  3229  0F23                     	;# 
  3230  0F24                     	;# 
  3231  0F25                     	;# 
  3232  0F25                     	;# 
  3233  0F26                     	;# 
  3234  0F27                     	;# 
  3235  0F27                     	;# 
  3236  0F28                     	;# 
  3237  0F29                     	;# 
  3238  0F2A                     	;# 
  3239  0F2B                     	;# 
  3240  0F2C                     	;# 
  3241  0F2D                     	;# 
  3242  0F2E                     	;# 
  3243  0F2F                     	;# 
  3244  0FE4                     	;# 
  3245  0FE5                     	;# 
  3246  0FE6                     	;# 
  3247  0FE7                     	;# 
  3248  0FE8                     	;# 
  3249  0FE9                     	;# 
  3250  0FEA                     	;# 
  3251  0FEB                     	;# 
  3252  0FED                     	;# 
  3253  0FEE                     	;# 
  3254  0FEF                     	;# 
  3255  0000                     	;# 
  3256  0001                     	;# 
  3257  0002                     	;# 
  3258  0003                     	;# 
  3259  0004                     	;# 
  3260  0005                     	;# 
  3261  0006                     	;# 
  3262  0007                     	;# 
  3263  0008                     	;# 
  3264  0009                     	;# 
  3265  000A                     	;# 
  3266  000B                     	;# 
  3267  000C                     	;# 
  3268  000D                     	;# 
  3269  000E                     	;# 
  3270  0010                     	;# 
  3271  0011                     	;# 
  3272  0012                     	;# 
  3273  0013                     	;# 
  3274  0014                     	;# 
  3275  0015                     	;# 
  3276  0016                     	;# 
  3277  0016                     	;# 
  3278  0017                     	;# 
  3279  0018                     	;# 
  3280  0019                     	;# 
  3281  001A                     	;# 
  3282  001B                     	;# 
  3283  001C                     	;# 
  3284  008C                     	;# 
  3285  008D                     	;# 
  3286  008E                     	;# 
  3287  0090                     	;# 
  3288  0091                     	;# 
  3289  0092                     	;# 
  3290  0093                     	;# 
  3291  0094                     	;# 
  3292  0095                     	;# 
  3293  0096                     	;# 
  3294  0097                     	;# 
  3295  0098                     	;# 
  3296  0099                     	;# 
  3297  009A                     	;# 
  3298  009B                     	;# 
  3299  009B                     	;# 
  3300  009C                     	;# 
  3301  009D                     	;# 
  3302  009E                     	;# 
  3303  009F                     	;# 
  3304  010C                     	;# 
  3305  010D                     	;# 
  3306  010E                     	;# 
  3307  0111                     	;# 
  3308  0112                     	;# 
  3309  0113                     	;# 
  3310  0114                     	;# 
  3311  0115                     	;# 
  3312  0116                     	;# 
  3313  0117                     	;# 
  3314  0118                     	;# 
  3315  0119                     	;# 
  3316  011A                     	;# 
  3317  011B                     	;# 
  3318  011C                     	;# 
  3319  011D                     	;# 
  3320  011D                     	;# 
  3321  011D                     	;# 
  3322  011E                     	;# 
  3323  011F                     	;# 
  3324  018C                     	;# 
  3325  018D                     	;# 
  3326  018E                     	;# 
  3327  0191                     	;# 
  3328  0191                     	;# 
  3329  0192                     	;# 
  3330  0193                     	;# 
  3331  0193                     	;# 
  3332  0193                     	;# 
  3333  0194                     	;# 
  3334  0195                     	;# 
  3335  0196                     	;# 
  3336  0197                     	;# 
  3337  0199                     	;# 
  3338  0199                     	;# 
  3339  0199                     	;# 
  3340  019A                     	;# 
  3341  019A                     	;# 
  3342  019A                     	;# 
  3343  019B                     	;# 
  3344  019B                     	;# 
  3345  019B                     	;# 
  3346  019B                     	;# 
  3347  019B                     	;# 
  3348  019C                     	;# 
  3349  019C                     	;# 
  3350  019C                     	;# 
  3351  019D                     	;# 
  3352  019D                     	;# 
  3353  019D                     	;# 
  3354  019E                     	;# 
  3355  019E                     	;# 
  3356  019E                     	;# 
  3357  019F                     	;# 
  3358  019F                     	;# 
  3359  019F                     	;# 
  3360  019F                     	;# 
  3361  019F                     	;# 
  3362  020C                     	;# 
  3363  020D                     	;# 
  3364  020E                     	;# 
  3365  0210                     	;# 
  3366  0211                     	;# 
  3367  0211                     	;# 
  3368  0212                     	;# 
  3369  0212                     	;# 
  3370  0213                     	;# 
  3371  0213                     	;# 
  3372  0214                     	;# 
  3373  0214                     	;# 
  3374  0215                     	;# 
  3375  0215                     	;# 
  3376  0215                     	;# 
  3377  0215                     	;# 
  3378  0216                     	;# 
  3379  0216                     	;# 
  3380  0217                     	;# 
  3381  0217                     	;# 
  3382  028C                     	;# 
  3383  028D                     	;# 
  3384  028E                     	;# 
  3385  0291                     	;# 
  3386  0291                     	;# 
  3387  0292                     	;# 
  3388  0293                     	;# 
  3389  0298                     	;# 
  3390  0298                     	;# 
  3391  0299                     	;# 
  3392  029A                     	;# 
  3393  030C                     	;# 
  3394  030D                     	;# 
  3395  030E                     	;# 
  3396  0311                     	;# 
  3397  0311                     	;# 
  3398  0312                     	;# 
  3399  0313                     	;# 
  3400  038C                     	;# 
  3401  038D                     	;# 
  3402  038E                     	;# 
  3403  0390                     	;# 
  3404  0391                     	;# 
  3405  0392                     	;# 
  3406  0393                     	;# 
  3407  0394                     	;# 
  3408  0395                     	;# 
  3409  0396                     	;# 
  3410  0397                     	;# 
  3411  0398                     	;# 
  3412  0399                     	;# 
  3413  039D                     	;# 
  3414  039E                     	;# 
  3415  039F                     	;# 
  3416  0511                     	;# 
  3417  0513                     	;# 
  3418  051A                     	;# 
  3419  0591                     	;# 
  3420  0592                     	;# 
  3421  0593                     	;# 
  3422  0594                     	;# 
  3423  0595                     	;# 
  3424  0596                     	;# 
  3425  0E91                     	;# 
  3426  0E92                     	;# 
  3427  0E93                     	;# 
  3428  0E94                     	;# 
  3429  0E95                     	;# 
  3430  0E96                     	;# 
  3431  0E97                     	;# 
  3432  0E98                     	;# 
  3433  0E99                     	;# 
  3434  0E9A                     	;# 
  3435  0E9B                     	;# 
  3436  0E9C                     	;# 
  3437  0E9D                     	;# 
  3438  0E9E                     	;# 
  3439  0E9F                     	;# 
  3440  0EA0                     	;# 
  3441  0EA1                     	;# 
  3442  0EA1                     	;# 
  3443  0EA2                     	;# 
  3444  0EA3                     	;# 
  3445  0EA3                     	;# 
  3446  0EA4                     	;# 
  3447  0EA5                     	;# 
  3448  0EA5                     	;# 
  3449  0EA6                     	;# 
  3450  0EA7                     	;# 
  3451  0EA7                     	;# 
  3452  0EA8                     	;# 
  3453  0EA9                     	;# 
  3454  0EAA                     	;# 
  3455  0EAB                     	;# 
  3456  0EAC                     	;# 
  3457  0EAD                     	;# 
  3458  0EAE                     	;# 
  3459  0EAF                     	;# 
  3460  0EB1                     	;# 
  3461  0EB2                     	;# 
  3462  0EB3                     	;# 
  3463  0EB4                     	;# 
  3464  0EB5                     	;# 
  3465  0EB6                     	;# 
  3466  0EB7                     	;# 
  3467  0EB8                     	;# 
  3468  0EB9                     	;# 
  3469  0EBA                     	;# 
  3470  0EBB                     	;# 
  3471  0EBC                     	;# 
  3472  0EBD                     	;# 
  3473  0EBE                     	;# 
  3474  0EBF                     	;# 
  3475  0EC0                     	;# 
  3476  0EC1                     	;# 
  3477  0EC1                     	;# 
  3478  0EC2                     	;# 
  3479  0EC3                     	;# 
  3480  0EC3                     	;# 
  3481  0EC4                     	;# 
  3482  0EC5                     	;# 
  3483  0EC5                     	;# 
  3484  0EC6                     	;# 
  3485  0EC7                     	;# 
  3486  0EC7                     	;# 
  3487  0EC8                     	;# 
  3488  0EC9                     	;# 
  3489  0ECA                     	;# 
  3490  0ECB                     	;# 
  3491  0ECC                     	;# 
  3492  0ECD                     	;# 
  3493  0ECE                     	;# 
  3494  0ECF                     	;# 
  3495  0ED1                     	;# 
  3496  0ED2                     	;# 
  3497  0ED3                     	;# 
  3498  0ED4                     	;# 
  3499  0ED5                     	;# 
  3500  0ED6                     	;# 
  3501  0ED7                     	;# 
  3502  0ED8                     	;# 
  3503  0ED9                     	;# 
  3504  0EDA                     	;# 
  3505  0EDB                     	;# 
  3506  0EDC                     	;# 
  3507  0EDD                     	;# 
  3508  0EDE                     	;# 
  3509  0EDF                     	;# 
  3510  0EE0                     	;# 
  3511  0EE1                     	;# 
  3512  0EE1                     	;# 
  3513  0EE2                     	;# 
  3514  0EE3                     	;# 
  3515  0EE3                     	;# 
  3516  0EE4                     	;# 
  3517  0EE5                     	;# 
  3518  0EE5                     	;# 
  3519  0EE6                     	;# 
  3520  0EE7                     	;# 
  3521  0EE7                     	;# 
  3522  0EE8                     	;# 
  3523  0EE9                     	;# 
  3524  0EEA                     	;# 
  3525  0EEB                     	;# 
  3526  0EEC                     	;# 
  3527  0EED                     	;# 
  3528  0EEE                     	;# 
  3529  0EEF                     	;# 
  3530  0F11                     	;# 
  3531  0F12                     	;# 
  3532  0F13                     	;# 
  3533  0F14                     	;# 
  3534  0F15                     	;# 
  3535  0F16                     	;# 
  3536  0F17                     	;# 
  3537  0F18                     	;# 
  3538  0F19                     	;# 
  3539  0F1A                     	;# 
  3540  0F1B                     	;# 
  3541  0F1C                     	;# 
  3542  0F1D                     	;# 
  3543  0F1E                     	;# 
  3544  0F1F                     	;# 
  3545  0F20                     	;# 
  3546  0F21                     	;# 
  3547  0F21                     	;# 
  3548  0F22                     	;# 
  3549  0F23                     	;# 
  3550  0F23                     	;# 
  3551  0F24                     	;# 
  3552  0F25                     	;# 
  3553  0F25                     	;# 
  3554  0F26                     	;# 
  3555  0F27                     	;# 
  3556  0F27                     	;# 
  3557  0F28                     	;# 
  3558  0F29                     	;# 
  3559  0F2A                     	;# 
  3560  0F2B                     	;# 
  3561  0F2C                     	;# 
  3562  0F2D                     	;# 
  3563  0F2E                     	;# 
  3564  0F2F                     	;# 
  3565  0FE4                     	;# 
  3566  0FE5                     	;# 
  3567  0FE6                     	;# 
  3568  0FE7                     	;# 
  3569  0FE8                     	;# 
  3570  0FE9                     	;# 
  3571  0FEA                     	;# 
  3572  0FEB                     	;# 
  3573  0FED                     	;# 
  3574  0FEE                     	;# 
  3575  0FEF                     	;# 
  3576  0000                     	;# 
  3577  0001                     	;# 
  3578  0002                     	;# 
  3579  0003                     	;# 
  3580  0004                     	;# 
  3581  0005                     	;# 
  3582  0006                     	;# 
  3583  0007                     	;# 
  3584  0008                     	;# 
  3585  0009                     	;# 
  3586  000A                     	;# 
  3587  000B                     	;# 
  3588  000C                     	;# 
  3589  000D                     	;# 
  3590  000E                     	;# 
  3591  0010                     	;# 
  3592  0011                     	;# 
  3593  0012                     	;# 
  3594  0013                     	;# 
  3595  0014                     	;# 
  3596  0015                     	;# 
  3597  0016                     	;# 
  3598  0016                     	;# 
  3599  0017                     	;# 
  3600  0018                     	;# 
  3601  0019                     	;# 
  3602  001A                     	;# 
  3603  001B                     	;# 
  3604  001C                     	;# 
  3605  008C                     	;# 
  3606  008D                     	;# 
  3607  008E                     	;# 
  3608  0090                     	;# 
  3609  0091                     	;# 
  3610  0092                     	;# 
  3611  0093                     	;# 
  3612  0094                     	;# 
  3613  0095                     	;# 
  3614  0096                     	;# 
  3615  0097                     	;# 
  3616  0098                     	;# 
  3617  0099                     	;# 
  3618  009A                     	;# 
  3619  009B                     	;# 
  3620  009B                     	;# 
  3621  009C                     	;# 
  3622  009D                     	;# 
  3623  009E                     	;# 
  3624  009F                     	;# 
  3625  010C                     	;# 
  3626  010D                     	;# 
  3627  010E                     	;# 
  3628  0111                     	;# 
  3629  0112                     	;# 
  3630  0113                     	;# 
  3631  0114                     	;# 
  3632  0115                     	;# 
  3633  0116                     	;# 
  3634  0117                     	;# 
  3635  0118                     	;# 
  3636  0119                     	;# 
  3637  011A                     	;# 
  3638  011B                     	;# 
  3639  011C                     	;# 
  3640  011D                     	;# 
  3641  011D                     	;# 
  3642  011D                     	;# 
  3643  011E                     	;# 
  3644  011F                     	;# 
  3645  018C                     	;# 
  3646  018D                     	;# 
  3647  018E                     	;# 
  3648  0191                     	;# 
  3649  0191                     	;# 
  3650  0192                     	;# 
  3651  0193                     	;# 
  3652  0193                     	;# 
  3653  0193                     	;# 
  3654  0194                     	;# 
  3655  0195                     	;# 
  3656  0196                     	;# 
  3657  0197                     	;# 
  3658  0199                     	;# 
  3659  0199                     	;# 
  3660  0199                     	;# 
  3661  019A                     	;# 
  3662  019A                     	;# 
  3663  019A                     	;# 
  3664  019B                     	;# 
  3665  019B                     	;# 
  3666  019B                     	;# 
  3667  019B                     	;# 
  3668  019B                     	;# 
  3669  019C                     	;# 
  3670  019C                     	;# 
  3671  019C                     	;# 
  3672  019D                     	;# 
  3673  019D                     	;# 
  3674  019D                     	;# 
  3675  019E                     	;# 
  3676  019E                     	;# 
  3677  019E                     	;# 
  3678  019F                     	;# 
  3679  019F                     	;# 
  3680  019F                     	;# 
  3681  019F                     	;# 
  3682  019F                     	;# 
  3683  020C                     	;# 
  3684  020D                     	;# 
  3685  020E                     	;# 
  3686  0210                     	;# 
  3687  0211                     	;# 
  3688  0211                     	;# 
  3689  0212                     	;# 
  3690  0212                     	;# 
  3691  0213                     	;# 
  3692  0213                     	;# 
  3693  0214                     	;# 
  3694  0214                     	;# 
  3695  0215                     	;# 
  3696  0215                     	;# 
  3697  0215                     	;# 
  3698  0215                     	;# 
  3699  0216                     	;# 
  3700  0216                     	;# 
  3701  0217                     	;# 
  3702  0217                     	;# 
  3703  028C                     	;# 
  3704  028D                     	;# 
  3705  028E                     	;# 
  3706  0291                     	;# 
  3707  0291                     	;# 
  3708  0292                     	;# 
  3709  0293                     	;# 
  3710  0298                     	;# 
  3711  0298                     	;# 
  3712  0299                     	;# 
  3713  029A                     	;# 
  3714  030C                     	;# 
  3715  030D                     	;# 
  3716  030E                     	;# 
  3717  0311                     	;# 
  3718  0311                     	;# 
  3719  0312                     	;# 
  3720  0313                     	;# 
  3721  038C                     	;# 
  3722  038D                     	;# 
  3723  038E                     	;# 
  3724  0390                     	;# 
  3725  0391                     	;# 
  3726  0392                     	;# 
  3727  0393                     	;# 
  3728  0394                     	;# 
  3729  0395                     	;# 
  3730  0396                     	;# 
  3731  0397                     	;# 
  3732  0398                     	;# 
  3733  0399                     	;# 
  3734  039D                     	;# 
  3735  039E                     	;# 
  3736  039F                     	;# 
  3737  0511                     	;# 
  3738  0513                     	;# 
  3739  051A                     	;# 
  3740  0591                     	;# 
  3741  0592                     	;# 
  3742  0593                     	;# 
  3743  0594                     	;# 
  3744  0595                     	;# 
  3745  0596                     	;# 
  3746  0E91                     	;# 
  3747  0E92                     	;# 
  3748  0E93                     	;# 
  3749  0E94                     	;# 
  3750  0E95                     	;# 
  3751  0E96                     	;# 
  3752  0E97                     	;# 
  3753  0E98                     	;# 
  3754  0E99                     	;# 
  3755  0E9A                     	;# 
  3756  0E9B                     	;# 
  3757  0E9C                     	;# 
  3758  0E9D                     	;# 
  3759  0E9E                     	;# 
  3760  0E9F                     	;# 
  3761  0EA0                     	;# 
  3762  0EA1                     	;# 
  3763  0EA1                     	;# 
  3764  0EA2                     	;# 
  3765  0EA3                     	;# 
  3766  0EA3                     	;# 
  3767  0EA4                     	;# 
  3768  0EA5                     	;# 
  3769  0EA5                     	;# 
  3770  0EA6                     	;# 
  3771  0EA7                     	;# 
  3772  0EA7                     	;# 
  3773  0EA8                     	;# 
  3774  0EA9                     	;# 
  3775  0EAA                     	;# 
  3776  0EAB                     	;# 
  3777  0EAC                     	;# 
  3778  0EAD                     	;# 
  3779  0EAE                     	;# 
  3780  0EAF                     	;# 
  3781  0EB1                     	;# 
  3782  0EB2                     	;# 
  3783  0EB3                     	;# 
  3784  0EB4                     	;# 
  3785  0EB5                     	;# 
  3786  0EB6                     	;# 
  3787  0EB7                     	;# 
  3788  0EB8                     	;# 
  3789  0EB9                     	;# 
  3790  0EBA                     	;# 
  3791  0EBB                     	;# 
  3792  0EBC                     	;# 
  3793  0EBD                     	;# 
  3794  0EBE                     	;# 
  3795  0EBF                     	;# 
  3796  0EC0                     	;# 
  3797  0EC1                     	;# 
  3798  0EC1                     	;# 
  3799  0EC2                     	;# 
  3800  0EC3                     	;# 
  3801  0EC3                     	;# 
  3802  0EC4                     	;# 
  3803  0EC5                     	;# 
  3804  0EC5                     	;# 
  3805  0EC6                     	;# 
  3806  0EC7                     	;# 
  3807  0EC7                     	;# 
  3808  0EC8                     	;# 
  3809  0EC9                     	;# 
  3810  0ECA                     	;# 
  3811  0ECB                     	;# 
  3812  0ECC                     	;# 
  3813  0ECD                     	;# 
  3814  0ECE                     	;# 
  3815  0ECF                     	;# 
  3816  0ED1                     	;# 
  3817  0ED2                     	;# 
  3818  0ED3                     	;# 
  3819  0ED4                     	;# 
  3820  0ED5                     	;# 
  3821  0ED6                     	;# 
  3822  0ED7                     	;# 
  3823  0ED8                     	;# 
  3824  0ED9                     	;# 
  3825  0EDA                     	;# 
  3826  0EDB                     	;# 
  3827  0EDC                     	;# 
  3828  0EDD                     	;# 
  3829  0EDE                     	;# 
  3830  0EDF                     	;# 
  3831  0EE0                     	;# 
  3832  0EE1                     	;# 
  3833  0EE1                     	;# 
  3834  0EE2                     	;# 
  3835  0EE3                     	;# 
  3836  0EE3                     	;# 
  3837  0EE4                     	;# 
  3838  0EE5                     	;# 
  3839  0EE5                     	;# 
  3840  0EE6                     	;# 
  3841  0EE7                     	;# 
  3842  0EE7                     	;# 
  3843  0EE8                     	;# 
  3844  0EE9                     	;# 
  3845  0EEA                     	;# 
  3846  0EEB                     	;# 
  3847  0EEC                     	;# 
  3848  0EED                     	;# 
  3849  0EEE                     	;# 
  3850  0EEF                     	;# 
  3851  0F11                     	;# 
  3852  0F12                     	;# 
  3853  0F13                     	;# 
  3854  0F14                     	;# 
  3855  0F15                     	;# 
  3856  0F16                     	;# 
  3857  0F17                     	;# 
  3858  0F18                     	;# 
  3859  0F19                     	;# 
  3860  0F1A                     	;# 
  3861  0F1B                     	;# 
  3862  0F1C                     	;# 
  3863  0F1D                     	;# 
  3864  0F1E                     	;# 
  3865  0F1F                     	;# 
  3866  0F20                     	;# 
  3867  0F21                     	;# 
  3868  0F21                     	;# 
  3869  0F22                     	;# 
  3870  0F23                     	;# 
  3871  0F23                     	;# 
  3872  0F24                     	;# 
  3873  0F25                     	;# 
  3874  0F25                     	;# 
  3875  0F26                     	;# 
  3876  0F27                     	;# 
  3877  0F27                     	;# 
  3878  0F28                     	;# 
  3879  0F29                     	;# 
  3880  0F2A                     	;# 
  3881  0F2B                     	;# 
  3882  0F2C                     	;# 
  3883  0F2D                     	;# 
  3884  0F2E                     	;# 
  3885  0F2F                     	;# 
  3886  0FE4                     	;# 
  3887  0FE5                     	;# 
  3888  0FE6                     	;# 
  3889  0FE7                     	;# 
  3890  0FE8                     	;# 
  3891  0FE9                     	;# 
  3892  0FEA                     	;# 
  3893  0FEB                     	;# 
  3894  0FED                     	;# 
  3895  0FEE                     	;# 
  3896  0FEF                     	;_ADC_vADCAry
  3897                           
  3898                           	psect	idataBANK0
  3899  0570                     __pidataBANK0:	
  3900                           
  3901                           ;initializer for _vPWM
  3902  0570  340C               	retlw	12
  3903  0571  340C               	retlw	12
  3904                           
  3905                           	psect	strings
  3906  04EC                     __pstrings:	
  3907  04EC                     __stringtab:	
  3908  04EC  3400               	retlw	0
  3909  04ED                     __end_of__stringtab:	
  3910  04ED                     _dpowers:	
  3911  04ED  3401               	retlw	1
  3912  04EE  3400               	retlw	0
  3913  04EF  340A               	retlw	10
  3914  04F0  3400               	retlw	0
  3915  04F1  3464               	retlw	100
  3916  04F2  3400               	retlw	0
  3917  04F3  34E8               	retlw	232
  3918  04F4  3403               	retlw	3
  3919  04F5  3410               	retlw	16
  3920  04F6  3427               	retlw	39
  3921  04F7                     __end_of_dpowers:	
  3922  000B                     _INTCON	set	11
  3923  0015                     _TMR0	set	21
  3924  008E                     _ADIF	set	142
  3925  0018                     _CARRY	set	24
  3926  0094                     _EEIF	set	148
  3927  005F                     _GIE	set	95
  3928  0067                     _RA7	set	103
  3929  0072                     _RC2	set	114
  3930  008D                     _RCIF	set	141
  3931  005D                     _TMR0IE	set	93
  3932  005A                     _TMR0IF	set	90
  3933  008C                     _TXIF	set	140
  3934  009D                     _ADCON0	set	157
  3935  009E                     _ADCON1	set	158
  3936  009F                     _ADCON2	set	159
  3937  009C                     _ADRESH	set	156
  3938  009B                     _ADRESL	set	155
  3939  0095                     _OPTION_REG	set	149
  3940  0099                     _OSCCON	set	153
  3941  008C                     _TRISA	set	140
  3942  008D                     _TRISB	set	141
  3943  048E                     _ADIE	set	1166
  3944  04E8                     _ADON	set	1256
  3945  04E9                     _GO	set	1257
  3946  048D                     _RCIE	set	1165
  3947  0462                     _TRISA2	set	1122
  3948  0465                     _TRISA5	set	1125
  3949  0466                     _TRISA6	set	1126
  3950  0467                     _TRISA7	set	1127
  3951  0470                     _TRISC0	set	1136
  3952  0471                     _TRISC1	set	1137
  3953  0472                     _TRISC2	set	1138
  3954  0476                     _TRISC6	set	1142
  3955  0477                     _TRISC7	set	1143
  3956  048C                     _TXIE	set	1164
  3957  0118                     _DAC1CON0	set	280
  3958  0119                     _DAC1CON1	set	281
  3959  08C7                     _DAC1EN	set	2247
  3960  08C0                     _DAC1NSS	set	2240
  3961  08C5                     _DAC1OE1	set	2245
  3962  08C4                     _DAC1OE2	set	2244
  3963  0191                     _EEADR	set	401
  3964  018C                     _ANSELA	set	396
  3965  018D                     _ANSELB	set	397
  3966  018E                     _ANSELC	set	398
  3967  0191                     _EEADRL	set	401
  3968  0195                     _EECON1	set	405
  3969  0196                     _EECON2	set	406
  3970  0193                     _EEDATA	set	403
  3971  0194                     _EEDATH	set	404
  3972  0193                     _EEDATL	set	403
  3973  0199                     _RCREG	set	409
  3974  019C                     _SPBRGH	set	412
  3975  019B                     _SPBRGL	set	411
  3976  019A                     _TXREG	set	410
  3977  0C62                     _ANSA2	set	3170
  3978  0C65                     _ANSA5	set	3173
  3979  0C67                     _ANSA7	set	3175
  3980  0CFB                     _BRG16	set	3323
  3981  0CF2                     _BRGH	set	3314
  3982  0CAE                     _CFGS	set	3246
  3983  0CEC                     _CREN	set	3308
  3984  0CAF                     _EEPGD	set	3247
  3985  0CA8                     _RD	set	3240
  3986  0CEF                     _SPEN	set	3311
  3987  0CF4                     _SYNC	set	3316
  3988  0CF5                     _TXEN	set	3317
  3989  0CA9                     _WR	set	3241
  3990  0CAA                     _WREN	set	3242
  3991  0293                     _CCP1CON	set	659
  3992  0291                     _CCPR1L	set	657
  3993  0E94                     _PSMC1CLK	set	3732
  3994  0E91                     _PSMC1CON	set	3729
  3995  0EAA                     _PSMC1DBF	set	3754
  3996  0EA9                     _PSMC1DBR	set	3753
  3997  0EA4                     _PSMC1DCH	set	3748
  3998  0EA3                     _PSMC1DCL	set	3747
  3999  0E9B                     _PSMC1DCSbits	set	3739
  4000  0EA0                     _PSMC1INT	set	3744
  4001  0E95                     _PSMC1OEN	set	3733
  4002  0EA2                     _PSMC1PHH	set	3746
  4003  0EA1                     _PSMC1PHL	set	3745
  4004  0E9A                     _PSMC1PHSbits	set	3738
  4005  0E96                     _PSMC1POL	set	3734
  4006  0EA6                     _PSMC1PRH	set	3750
  4007  0EA5                     _PSMC1PRL	set	3749
  4008  0E9C                     _PSMC1PRSbits	set	3740
  4009  0EAE                     _PSMC1STR0	set	3758
  4010  7504                     _P1TPRIE	set	29956
  4011  7500                     _P1TPRIF	set	29952
  4012  748E                     _PSMC1LD	set	29838
  4013  04F7                     __stringdata:	
  4014  04F7                     STR_1:	
  4015  04F7  3441               	retlw	65	;'A'
  4016  04F8  3444               	retlw	68	;'D'
  4017  04F9  3443               	retlw	67	;'C'
  4018  04FA  343A               	retlw	58	;':'
  4019  04FB  3425               	retlw	37	;'%'
  4020  04FC  3464               	retlw	100	;'d'
  4021  04FD  340D               	retlw	13
  4022  04FE  340A               	retlw	10
  4023  04FF  3400               	retlw	0
  4024  0500                     __end_of__stringdata:	
  4025                           
  4026                           ; #config settings
  4027  0000                     
  4028                           	psect	cinit
  4029  0127                     start_initialization:	
  4030  0127                     __initialization:		;BIGRAM
  4031                           
  4032                           ; Clear objects allocated to BIGRAM
  4033  0127  3028               	movlw	low (0+10024)
  4034  0128  0084               	movwf	4
  4035  0129  3027               	movlw	high (0+10024)
  4036  012A  0085               	movwf	5
  4037  012B  30C8               	movlw	200
  4038  012C  00FE               	movwf	btemp
  4039  012D  3000               	movlw	0
  4040  012E  00FF               	movwf	btemp+1
  4041  012F  3185  252C  3181   	fcall	clear_ram0
  4042                           
  4043                           ; Clear objects allocated to BITBANK0
  4044  0132  01E5               	clrf	(__pbitbssBANK0/(0+8))& (0+127)
  4045                           
  4046                           ; Clear objects allocated to BANK0
  4047  0133  3045               	movlw	low __pbssBANK0
  4048  0134  0084               	movwf	4
  4049  0135  3000               	movlw	high __pbssBANK0
  4050  0136  0085               	movwf	5
  4051  0137  3020               	movlw	32
  4052  0138  00FE               	movwf	btemp
  4053  0139  3000               	movlw	0
  4054  013A  00FF               	movwf	btemp+1
  4055  013B  3185  252C  3181   	fcall	clear_ram0
  4056                           
  4057                           ; Clear objects allocated to BANK1
  4058  013E  30A0               	movlw	low __pbssBANK1
  4059  013F  0084               	movwf	4
  4060  0140  3000               	movlw	high __pbssBANK1
  4061  0141  0085               	movwf	5
  4062  0142  303C               	movlw	60
  4063  0143  00FE               	movwf	btemp
  4064  0144  3000               	movlw	0
  4065  0145  00FF               	movwf	btemp+1
  4066  0146  3185  252C  3181   	fcall	clear_ram0
  4067                           
  4068                           ; Initialize objects allocated to BANK0
  4069  0149  3185  2570  3181   	fcall	__pidataBANK0	;fetch initializer
  4070  014C  00E6               	movwf	__pdataBANK0& (0+127)
  4071  014D  3185  2571         	fcall	__pidataBANK0+1	;fetch initializer
  4072  014F  00E7               	movwf	(__pdataBANK0+1)& (0+127)
  4073  0150                     end_of_initialization:	
  4074                           ;End of C runtime variable initialization code
  4075                           
  4076  0150                     __end_of__initialization:	
  4077  0150  0020               	movlb	0
  4078  0151  3182  2A12         	ljmp	_main	;jump to C main() function
  4079                           
  4080                           	psect	bitbssBANK0
  4081  0328                     __pbitbssBANK0:	
  4082  0328                     _flgADCAryFull:	
  4083  0328                     	ds	1
  4084  0329                     _flgPSMC:	
  4085  0329                     	ds	1
  4086  032A                     _flgTicTac:	
  4087  032A                     	ds	1
  4088                           
  4089                           	psect	bssBANK0
  4090  0045                     __pbssBANK0:	
  4091  0045                     _ADC_vADC:	
  4092  0045                     	ds	2
  4093  0047                     _cntBlink:	
  4094  0047                     	ds	2
  4095  0049                     _cntCur:	
  4096  0049                     	ds	2
  4097  004B                     _cntPWM:	
  4098  004B                     	ds	2
  4099  004D                     _counter:	
  4100  004D                     	ds	2
  4101  004F                     _vADCAN0:	
  4102  004F                     	ds	2
  4103  0051                     _vADCANFlt:	
  4104  0051                     	ds	2
  4105  0053                     _vADCANOld:	
  4106  0053                     	ds	2
  4107  0055                     _vADCANOld1:	
  4108  0055                     	ds	2
  4109  0057                     _vPeakVld:	
  4110  0057                     	ds	2
  4111  0059                     _vSenOld:	
  4112  0059                     	ds	2
  4113  005B                     EEPROMWrite@cntOverTime:	
  4114  005B                     	ds	1
  4115  005C                     _ADCON0Tmp:	
  4116  005C                     	ds	1
  4117  005D                     _RA7Old:	
  4118  005D                     	ds	1
  4119  005E                     _UART_cntRxUART:	
  4120  005E                     	ds	1
  4121  005F                     _UART_cntTxUART:	
  4122  005F                     	ds	1
  4123  0060                     _bFlg:	
  4124  0060                     	ds	1
  4125  0061                     _cntPerd:	
  4126  0061                     	ds	1
  4127  0062                     _cntUARTSend:	
  4128  0062                     	ds	1
  4129  0063                     _idxADC:	
  4130  0063                     	ds	1
  4131  0064                     _stLen:	
  4132  0064                     	ds	1
  4133                           
  4134                           	psect	dataBANK0
  4135  0066                     __pdataBANK0:	
  4136  0066                     _vPWM:	
  4137  0066                     	ds	2
  4138                           
  4139                           	psect	bssBANK1
  4140  00A0                     __pbssBANK1:	
  4141  00A0                     _UART_chRxBuf:	
  4142  00A0                     	ds	20
  4143  00B4                     _UART_chTxBuf:	
  4144  00B4                     	ds	20
  4145  00C8                     _chBufADC:	
  4146  00C8                     	ds	20
  4147                           
  4148                           	psect	clrtext
  4149  052C                     clear_ram0:	
  4150                           ;	Called with FSR0 containing the base address, and
  4151                           ;	btemp/btemp+1 has the size to clear
  4152                           
  4153  052C  0064               	clrwdt	;clear the watchdog before getting into this loop
  4154  052D                     clrloop0:	
  4155  052D  0180               	clrf	0	;clear RAM location pointed to by FSR
  4156  052E  3101               	addfsr 0,1
  4157  052F  3001               	movlw	1
  4158  0530  02FE               	subwf	126,f
  4159  0531  3000               	movlw	0
  4160  0532  3BFF               	subwfb	127,f
  4161  0533  087F               	movf	127,w
  4162  0534  047E               	iorwf	126,w
  4163  0535  1903               	btfsc	3,2
  4164  0536  3400               	retlw	0	;all done for this memory range, return
  4165  0537  2D2D               	goto	clrloop0	;have we reached the end yet?
  4166                           
  4167                           	psect	cstackCOMMON
  4168  0070                     __pcstackCOMMON:	
  4169  0070                     ?_ConfigureOscillator:	
  4170  0070                     ?_InitApp:	
  4171                           ; 0 bytes @ 0x0
  4172                           
  4173  0070                     ?_DACSet:	
  4174                           ; 0 bytes @ 0x0
  4175                           
  4176  0070                     ?_DACInit:	
  4177                           ; 0 bytes @ 0x0
  4178                           
  4179  0070                     ?_DioIni:	
  4180                           ; 0 bytes @ 0x0
  4181                           
  4182  0070                     ?_PWMSetConfig:	
  4183                           ; 0 bytes @ 0x0
  4184                           
  4185  0070                     ?_PWMIni:	
  4186                           ; 0 bytes @ 0x0
  4187                           
  4188  0070                     ?_UARTIni:	
  4189                           ; 0 bytes @ 0x0
  4190                           
  4191  0070                     ?_isr:	
  4192                           ; 0 bytes @ 0x0
  4193                           
  4194  0070                     ?_main:	
  4195                           ; 0 bytes @ 0x0
  4196                           
  4197  0070                     ?_eeprom_read:	
  4198                           ; 0 bytes @ 0x0
  4199                           
  4200  0070                     ?___lmul:	
  4201                           ; 1 bytes @ 0x0
  4202                           
  4203  0070                     ReadADC@ANx:	
  4204                           ; 4 bytes @ 0x0
  4205                           
  4206  0070                     ___lmul@multiplier:	
  4207                           ; 1 bytes @ 0x0
  4208                           
  4209                           
  4210                           ; 4 bytes @ 0x0
  4211  0070                     	ds	4
  4212  0074                     ___lmul@multiplicand:	
  4213                           
  4214                           ; 4 bytes @ 0x4
  4215  0074                     	ds	4
  4216  0078                     ??___lmul:	
  4217  0078                     ___lmul@product:	
  4218                           ; 0 bytes @ 0x8
  4219                           
  4220                           
  4221                           ; 4 bytes @ 0x8
  4222  0078                     	ds	4
  4223  007C                     ?i1_PWMSetPeriod:	
  4224  007C                     ?i1_PWMSetDutyCycle:	
  4225                           ; 0 bytes @ 0xC
  4226                           
  4227  007C                     i1PWMSetPeriod@cntPeriod:	
  4228                           ; 0 bytes @ 0xC
  4229                           
  4230  007C                     i1PWMSetDutyCycle@cntDutyCycle:	
  4231                           ; 2 bytes @ 0xC
  4232                           
  4233                           
  4234                           ; 2 bytes @ 0xC
  4235  007C                     	ds	2
  4236  007E                     ??i1_PWMSetPeriod:	
  4237  007E                     ??i1_PWMSetDutyCycle:	
  4238                           ; 0 bytes @ 0xE
  4239                           
  4240                           
  4241                           	psect	cstackBANK0
  4242  0020                     __pcstackBANK0:	
  4243                           ; 0 bytes @ 0xE
  4244                           
  4245  0020                     ??_isr:	
  4246                           
  4247                           ; 0 bytes @ 0x0
  4248  0020                     	ds	7
  4249  0027                     ?_PWMSetDutyCycle:	
  4250  0027                     ?_PWMSetPeriod:	
  4251                           ; 0 bytes @ 0x7
  4252                           
  4253  0027                     ?_PWMSetPhase:	
  4254                           ; 0 bytes @ 0x7
  4255                           
  4256  0027                     ??_ConfigureOscillator:	
  4257                           ; 0 bytes @ 0x7
  4258                           
  4259  0027                     ??_eeprom_read:	
  4260                           ; 0 bytes @ 0x7
  4261                           
  4262  0027                     ??_DACSet:	
  4263                           ; 0 bytes @ 0x7
  4264                           
  4265  0027                     ?_eeprom_write:	
  4266                           ; 0 bytes @ 0x7
  4267                           
  4268  0027                     ??_DACInit:	
  4269                           ; 0 bytes @ 0x7
  4270                           
  4271  0027                     ??_DioIni:	
  4272                           ; 0 bytes @ 0x7
  4273                           
  4274  0027                     ?_ADCIni:	
  4275                           ; 0 bytes @ 0x7
  4276                           
  4277  0027                     ??_UARTIni:	
  4278                           ; 0 bytes @ 0x7
  4279                           
  4280  0027                     ?_UARTSend:	
  4281                           ; 0 bytes @ 0x7
  4282                           
  4283  0027                     ?_ReadADC:	
  4284                           ; 1 bytes @ 0x7
  4285                           
  4286  0027                     ?___awdiv:	
  4287                           ; 2 bytes @ 0x7
  4288                           
  4289  0027                     ?___lwdiv:	
  4290                           ; 2 bytes @ 0x7
  4291                           
  4292  0027                     ADCIni@Fosc:	
  4293                           ; 2 bytes @ 0x7
  4294                           
  4295  0027                     UARTSend@stLen:	
  4296                           ; 1 bytes @ 0x7
  4297                           
  4298  0027                     eeprom_write@value:	
  4299                           ; 1 bytes @ 0x7
  4300                           
  4301  0027                     PWMSetPhase@cntPhase:	
  4302                           ; 1 bytes @ 0x7
  4303                           
  4304  0027                     PWMSetPeriod@cntPeriod:	
  4305                           ; 2 bytes @ 0x7
  4306                           
  4307  0027                     PWMSetDutyCycle@cntDutyCycle:	
  4308                           ; 2 bytes @ 0x7
  4309                           
  4310  0027                     ___awdiv@divisor:	
  4311                           ; 2 bytes @ 0x7
  4312                           
  4313  0027                     ___lwdiv@divisor:	
  4314                           ; 2 bytes @ 0x7
  4315                           
  4316                           
  4317                           ; 2 bytes @ 0x7
  4318  0027                     	ds	1
  4319  0028                     ??_eeprom_write:	
  4320  0028                     ??_ADCIni:	
  4321                           ; 0 bytes @ 0x8
  4322                           
  4323  0028                     ??_UARTSend:	
  4324                           ; 0 bytes @ 0x8
  4325                           
  4326  0028                     DACSet@Val:	
  4327                           ; 0 bytes @ 0x8
  4328                           
  4329                           
  4330                           ; 1 bytes @ 0x8
  4331  0028                     	ds	1
  4332  0029                     ??_PWMSetDutyCycle:	
  4333  0029                     ??_PWMSetPeriod:	
  4334                           ; 0 bytes @ 0x9
  4335                           
  4336  0029                     ??_PWMSetPhase:	
  4337                           ; 0 bytes @ 0x9
  4338                           
  4339  0029                     ??_ReadADC:	
  4340                           ; 0 bytes @ 0x9
  4341                           
  4342  0029                     ??_PWMSetConfig:	
  4343                           ; 0 bytes @ 0x9
  4344                           
  4345  0029                     ??_PWMIni:	
  4346                           ; 0 bytes @ 0x9
  4347                           
  4348  0029                     ADCIni@ANx:	
  4349                           ; 0 bytes @ 0x9
  4350                           
  4351  0029                     ___awdiv@dividend:	
  4352                           ; 1 bytes @ 0x9
  4353                           
  4354  0029                     ___lwdiv@dividend:	
  4355                           ; 2 bytes @ 0x9
  4356                           
  4357                           
  4358                           ; 2 bytes @ 0x9
  4359  0029                     	ds	1
  4360  002A                     ??_InitApp:	
  4361  002A                     UARTSend@pData:	
  4362                           ; 0 bytes @ 0xA
  4363                           
  4364  002A                     eeprom_read@addr:	
  4365                           ; 1 bytes @ 0xA
  4366                           
  4367  002A                     eeprom_write@addr:	
  4368                           ; 1 bytes @ 0xA
  4369                           
  4370                           
  4371                           ; 1 bytes @ 0xA
  4372  002A                     	ds	1
  4373  002B                     ??___awdiv:	
  4374  002B                     ??___lwdiv:	
  4375                           ; 0 bytes @ 0xB
  4376                           
  4377  002B                     ReadADC@vADC:	
  4378                           ; 0 bytes @ 0xB
  4379                           
  4380  002B                     UARTSend@i:	
  4381                           ; 2 bytes @ 0xB
  4382                           
  4383                           
  4384                           ; 2 bytes @ 0xB
  4385  002B                     	ds	1
  4386  002C                     ___awdiv@counter:	
  4387  002C                     ___lwdiv@quotient:	
  4388                           ; 1 bytes @ 0xC
  4389                           
  4390                           
  4391                           ; 2 bytes @ 0xC
  4392  002C                     	ds	1
  4393  002D                     ___awdiv@sign:	
  4394                           
  4395                           ; 1 bytes @ 0xD
  4396  002D                     	ds	1
  4397  002E                     ___lwdiv@counter:	
  4398  002E                     ___awdiv@quotient:	
  4399                           ; 1 bytes @ 0xE
  4400                           
  4401                           
  4402                           ; 2 bytes @ 0xE
  4403  002E                     	ds	1
  4404  002F                     ?___lwmod:	
  4405  002F                     ___lwmod@divisor:	
  4406                           ; 2 bytes @ 0xF
  4407                           
  4408                           
  4409                           ; 2 bytes @ 0xF
  4410  002F                     	ds	2
  4411  0031                     ___lwmod@dividend:	
  4412                           
  4413                           ; 2 bytes @ 0x11
  4414  0031                     	ds	2
  4415  0033                     ??___lwmod:	
  4416                           
  4417                           ; 0 bytes @ 0x13
  4418  0033                     	ds	1
  4419  0034                     ___lwmod@counter:	
  4420                           
  4421                           ; 1 bytes @ 0x14
  4422  0034                     	ds	1
  4423  0035                     ?_sprintf:	
  4424  0035                     sprintf@f:	
  4425                           ; 2 bytes @ 0x15
  4426                           
  4427                           
  4428                           ; 1 bytes @ 0x15
  4429  0035                     	ds	3
  4430  0038                     ??_sprintf:	
  4431                           
  4432                           ; 0 bytes @ 0x18
  4433  0038                     	ds	2
  4434  003A                     sprintf@ap:	
  4435                           
  4436                           ; 1 bytes @ 0x1A
  4437  003A                     	ds	1
  4438  003B                     sprintf@flag:	
  4439                           
  4440                           ; 1 bytes @ 0x1B
  4441  003B                     	ds	1
  4442  003C                     sprintf@prec:	
  4443                           
  4444                           ; 1 bytes @ 0x1C
  4445  003C                     	ds	1
  4446  003D                     sprintf@_val:	
  4447                           
  4448                           ; 4 bytes @ 0x1D
  4449  003D                     	ds	4
  4450  0041                     sprintf@sp:	
  4451                           
  4452                           ; 1 bytes @ 0x21
  4453  0041                     	ds	1
  4454  0042                     sprintf@c:	
  4455                           
  4456                           ; 1 bytes @ 0x22
  4457  0042                     	ds	1
  4458  0043                     ??_main:	
  4459                           
  4460                           ; 0 bytes @ 0x23
  4461  0043                     	ds	2
  4462                           
  4463                           	psect	maintext
  4464  0212                     __pmaintext:	
  4465 ;;
  4466 ;;Main: autosize = 0, tempsize = 2, incstack = 0, save=0
  4467 ;;
  4468 ;; *************** function _main *****************
  4469 ;; Defined at:
  4470 ;;		line 64 in file "main.c"
  4471 ;; Parameters:    Size  Location     Type
  4472 ;;		None
  4473 ;; Auto vars:     Size  Location     Type
  4474 ;;  vPeak           2    0        int 
  4475 ;; Return value:  Size  Location     Type
  4476 ;;		None               void
  4477 ;; Registers used:
  4478 ;;		wreg, fsr0l, fsr0h, fsr1l, fsr1h, fsr1l, fsr1h, status,2, status,0, btemp+1, pclath, cstack
  4479 ;; Tracked objects:
  4480 ;;		On entry : 17F/0
  4481 ;;		On exit  : 0/0
  4482 ;;		Unchanged: 0/0
  4483 ;; Data sizes:     COMMON   BANK0   BANK1   BANK2   BANK3   BANK4   BANK5   BANK6   BANK7   BANK8   BANK9  BANK10  BANK1
      +1  BANK12  BANK13  BANK14  BANK15  BANK16  BANK17  BANK18  BANK19  BANK20  BANK21  BANK22  BANK23  BANK24  BANK25
  4484 ;;      Params:         0       0       0       0       0       0       0       0       0       0       0       0       
      +0       0       0       0       0       0       0       0       0       0       0       0       0       0       0
  4485 ;;      Locals:         0       0       0       0       0       0       0       0       0       0       0       0       
      +0       0       0       0       0       0       0       0       0       0       0       0       0       0       0
  4486 ;;      Temps:          0       2       0       0       0       0       0       0       0       0       0       0       
      +0       0       0       0       0       0       0       0       0       0       0       0       0       0       0
  4487 ;;      Totals:         0       2       0       0       0       0       0       0       0       0       0       0       
      +0       0       0       0       0       0       0       0       0       0       0       0       0       0       0
  4488 ;;Total ram usage:        2 bytes
  4489 ;; Hardware stack levels required when called:    6
  4490 ;; This function calls:
  4491 ;;		_ReadADC
  4492 ;;		_UARTSend
  4493 ;;		_ConfigureOscillator
  4494 ;;		_InitApp
  4495 ;;		_eeprom_read
  4496 ;;		_DACSet
  4497 ;;		_eeprom_write
  4498 ;;		_sprintf
  4499 ;;		___awdiv
  4500 ;; This function is called by:
  4501 ;;		Startup code after reset
  4502 ;; This function uses a non-reentrant model
  4503 ;;
  4504                           
  4505                           
  4506                           ;psect for function _main
  4507  0212                     _main:	
  4508                           
  4509                           ;main.c: 68: int16_t vPeak;
  4510                           ;main.c: 71: ConfigureOscillator();
  4511                           
  4512                           ;incstack = 0
  4513                           ; Regs used in _main: [allreg]
  4514  0212  3185  2569  3182   	fcall	_ConfigureOscillator
  4515                           
  4516                           ;main.c: 75: InitApp();
  4517  0215  3184  24CF  3182   	fcall	_InitApp
  4518                           
  4519                           ;main.c: 78: vPWM = eeprom_read(0);
  4520  0218  3000               	movlw	0
  4521  0219  3184  24AE  3182   	fcall	_eeprom_read
  4522  021C  0020               	movlb	0	; select bank0
  4523  021D  00C3               	movwf	??_main
  4524  021E  01C4               	clrf	??_main+1
  4525  021F  0843               	movf	??_main,w
  4526  0220  00E6               	movwf	_vPWM
  4527  0221  0844               	movf	??_main+1,w
  4528  0222  00E7               	movwf	_vPWM+1
  4529                           
  4530                           ;main.c: 79: DACSet(100);
  4531  0223  3064               	movlw	100
  4532  0224  3185  2500  3182   	fcall	_DACSet
  4533  0227                     l1955:	
  4534                           ;main.c: 87: while(1)
  4535                           
  4536                           
  4537                           ;main.c: 88: {
  4538                           ;main.c: 90: if (flgTicTac == 1)
  4539  0227  0020               	movlb	0	; select bank0
  4540  0228  1D65               	btfss	_flgTicTac/(0+8),_flgTicTac& (0+7)	;volatile
  4541  0229  2A27               	goto	l1955
  4542                           
  4543                           ;main.c: 91: {
  4544                           ;main.c: 92: flgTicTac = 0;
  4545  022A  1165               	bcf	_flgTicTac/(0+8),_flgTicTac& (0+7)	;volatile
  4546                           
  4547                           ;main.c: 100: RC2 = !RC2;
  4548  022B  3004               	movlw	4
  4549  022C  068E               	xorwf	14,f
  4550                           
  4551                           ;main.c: 101: cntCur++;
  4552  022D  3001               	movlw	1
  4553  022E  07C9               	addwf	_cntCur,f
  4554  022F  3000               	movlw	0
  4555  0230  3DCA               	addwfc	_cntCur+1,f
  4556                           
  4557                           ;main.c: 103: vADCAN0 = ReadADC(1);
  4558  0231  3001               	movlw	1
  4559  0232  3184  248A  3182   	fcall	_ReadADC
  4560  0235  0020               	movlb	0	; select bank0
  4561  0236  0828               	movf	?_ReadADC+1,w
  4562  0237  01D0               	clrf	_vADCAN0+1
  4563  0238  07D0               	addwf	_vADCAN0+1,f
  4564  0239  0827               	movf	?_ReadADC,w
  4565  023A  01CF               	clrf	_vADCAN0
  4566  023B  07CF               	addwf	_vADCAN0,f
  4567                           
  4568                           ;main.c: 107: vADCANFlt = vADCANOld+(vADCAN0-vADCANOld)/20;
  4569  023C  3014               	movlw	20
  4570  023D  00A7               	movwf	?___awdiv
  4571  023E  3000               	movlw	0
  4572  023F  00A8               	movwf	?___awdiv+1
  4573  0240  0953               	comf	_vADCANOld,w
  4574  0241  00C3               	movwf	??_main
  4575  0242  0954               	comf	_vADCANOld+1,w
  4576  0243  00C4               	movwf	??_main+1
  4577  0244  0AC3               	incf	??_main,f
  4578  0245  1903               	skipnz
  4579  0246  0AC4               	incf	??_main+1,f
  4580  0247  084F               	movf	_vADCAN0,w
  4581  0248  0743               	addwf	??_main,w
  4582  0249  00A9               	movwf	?___awdiv+2
  4583  024A  0850               	movf	_vADCAN0+1,w
  4584  024B  3D44               	addwfc	??_main+1,w
  4585  024C  00AA               	movwf	?___awdiv+3
  4586  024D  3182  22C0  3182   	fcall	___awdiv
  4587  0250  0020               	movlb	0	; select bank0
  4588  0251  0853               	movf	_vADCANOld,w
  4589  0252  0727               	addwf	?___awdiv,w
  4590  0253  00D1               	movwf	_vADCANFlt
  4591  0254  0854               	movf	_vADCANOld+1,w
  4592  0255  3D28               	addwfc	?___awdiv+1,w
  4593  0256  00D2               	movwf	_vADCANFlt+1
  4594                           
  4595                           ;main.c: 112: if ((vADCANFlt==vADCANOld)&&(vADCAN0!=vADCANOld))
  4596  0257  0854               	movf	_vADCANOld+1,w
  4597  0258  0652               	xorwf	_vADCANFlt+1,w
  4598  0259  1D03               	skipz
  4599  025A  2A5D               	goto	u1155
  4600  025B  0853               	movf	_vADCANOld,w
  4601  025C  0651               	xorwf	_vADCANFlt,w
  4602  025D                     u1155:	
  4603  025D  1D03               	skipz
  4604  025E  2A7D               	goto	l1973
  4605  025F  0854               	movf	_vADCANOld+1,w
  4606  0260  0650               	xorwf	_vADCAN0+1,w
  4607  0261  1D03               	skipz
  4608  0262  2A65               	goto	u1165
  4609  0263  0853               	movf	_vADCANOld,w
  4610  0264  064F               	xorwf	_vADCAN0,w
  4611  0265                     u1165:	
  4612  0265  1903               	skipnz
  4613  0266  2A7D               	goto	l1973
  4614                           
  4615                           ;main.c: 113: {
  4616                           ;main.c: 114: if ((vADCAN0>vADCANOld))
  4617  0267  0854               	movf	_vADCANOld+1,w
  4618  0268  3A80               	xorlw	128
  4619  0269  00C3               	movwf	??_main
  4620  026A  0850               	movf	_vADCAN0+1,w
  4621  026B  3A80               	xorlw	128
  4622  026C  0243               	subwf	??_main,w
  4623  026D  1D03               	skipz
  4624  026E  2A71               	goto	u1175
  4625  026F  084F               	movf	_vADCAN0,w
  4626  0270  0253               	subwf	_vADCANOld,w
  4627  0271                     u1175:	
  4628  0271  1803               	skipnc
  4629  0272  2A78               	goto	l1971
  4630                           
  4631                           ;main.c: 115: {
  4632                           ;main.c: 116: vADCANFlt++;
  4633  0273  3001               	movlw	1
  4634  0274  0020               	movlb	0	; select bank0
  4635  0275  07D1               	addwf	_vADCANFlt,f
  4636  0276  3000               	movlw	0
  4637  0277  2A7C               	goto	L1
  4638  0278                     l1971:	
  4639                           ;main.c: 117: }
  4640                           
  4641                           
  4642                           ;main.c: 118: else
  4643                           ;main.c: 119: {
  4644                           ;main.c: 120: vADCANFlt--;
  4645  0278  30FF               	movlw	255
  4646  0279  0020               	movlb	0	; select bank0
  4647  027A  07D1               	addwf	_vADCANFlt,f
  4648  027B  30FF               	movlw	255
  4649  027C                     L1:	
  4650  027C  3DD2               	addwfc	_vADCANFlt+1,f
  4651  027D                     l1973:	
  4652                           
  4653                           ;main.c: 121: }
  4654                           ;main.c: 122: }
  4655                           ;main.c: 124: if ((RA7==1)&&(RA7Old==0))
  4656  027D  1F8C               	btfss	12,7	;volatile
  4657  027E  2A8B               	goto	l1979
  4658  027F  08DD               	movf	_RA7Old,f
  4659  0280  1D03               	skipz
  4660  0281  2A8B               	goto	l1979
  4661                           
  4662                           ;main.c: 125: {
  4663                           ;main.c: 132: eeprom_write(0,vPWM);
  4664  0282  0866               	movf	_vPWM,w
  4665  0283  00C3               	movwf	??_main
  4666  0284  0843               	movf	??_main,w
  4667  0285  00A7               	movwf	?_eeprom_write
  4668  0286  3000               	movlw	0
  4669  0287  3184  245E  3182   	fcall	_eeprom_write
  4670                           
  4671                           ;main.c: 133: }
  4672  028A  2A8E               	goto	l1981
  4673  028B                     l1979:	
  4674                           
  4675                           ;main.c: 134: else
  4676                           ;main.c: 135: {
  4677                           ;main.c: 136: PSMC1INT = 0x10;
  4678  028B  3010               	movlw	16
  4679  028C  003D               	movlb	29	; select bank29
  4680  028D  00A0               	movwf	32	;volatile
  4681  028E                     l1981:	
  4682                           
  4683                           ;main.c: 137: }
  4684                           ;main.c: 139: vADCANOld = vADCANFlt;
  4685  028E  0020               	movlb	0	; select bank0
  4686  028F  0852               	movf	_vADCANFlt+1,w
  4687  0290  01D4               	clrf	_vADCANOld+1
  4688  0291  07D4               	addwf	_vADCANOld+1,f
  4689  0292  0851               	movf	_vADCANFlt,w
  4690  0293  01D3               	clrf	_vADCANOld
  4691  0294  07D3               	addwf	_vADCANOld,f
  4692                           
  4693                           ;main.c: 140: vPWM = vADCANFlt;
  4694  0295  0852               	movf	_vADCANFlt+1,w
  4695  0296  01E7               	clrf	_vPWM+1
  4696  0297  07E7               	addwf	_vPWM+1,f
  4697  0298  0851               	movf	_vADCANFlt,w
  4698  0299  01E6               	clrf	_vPWM
  4699  029A  07E6               	addwf	_vPWM,f
  4700                           
  4701                           ;main.c: 143: cntUARTSend++;
  4702  029B  3001               	movlw	1
  4703  029C  00C3               	movwf	??_main
  4704  029D  0843               	movf	??_main,w
  4705  029E  07E2               	addwf	_cntUARTSend,f
  4706                           
  4707                           ;main.c: 144: if ((cntUARTSend==50))
  4708  029F  0862               	movf	_cntUARTSend,w
  4709  02A0  3A32               	xorlw	50
  4710  02A1  1D03               	skipz
  4711  02A2  2AB9               	goto	l1997
  4712                           
  4713                           ;main.c: 145: {
  4714                           ;main.c: 148: sprintf(chBufADC,"ADC:%d\r\n",vADCANFlt);
  4715  02A3  30F7               	movlw	(STR_1| (0+32768))& (0+255)
  4716  02A4  00C3               	movwf	??_main
  4717  02A5  0843               	movf	??_main,w
  4718  02A6  00B5               	movwf	?_sprintf
  4719  02A7  0852               	movf	_vADCANFlt+1,w
  4720  02A8  01B7               	clrf	?_sprintf+2
  4721  02A9  07B7               	addwf	?_sprintf+2,f
  4722  02AA  0851               	movf	_vADCANFlt,w
  4723  02AB  01B6               	clrf	?_sprintf+1
  4724  02AC  07B6               	addwf	?_sprintf+1,f
  4725  02AD  30C8               	movlw	_chBufADC& (0+255)
  4726  02AE  3181  2153  3182   	fcall	_sprintf
  4727                           
  4728                           ;main.c: 149: UARTSend(chBufADC,0);
  4729  02B1  0020               	movlb	0	; select bank0
  4730  02B2  01A7               	clrf	?_UARTSend
  4731  02B3  30C8               	movlw	_chBufADC& (0+255)
  4732  02B4  3183  2314  3182   	fcall	_UARTSend
  4733                           
  4734                           ;main.c: 150: cntUARTSend = 0;
  4735  02B7  0020               	movlb	0	; select bank0
  4736  02B8  01E2               	clrf	_cntUARTSend
  4737  02B9                     l1997:	
  4738                           ;main.c: 157: else
  4739                           ;main.c: 158: {
  4740                           ;main.c: 159: ;
  4741                           
  4742                           ;main.c: 153: {
  4743                           ;main.c: 156: }
  4744                           
  4745                           ;main.c: 151: }
  4746                           
  4747                           
  4748                           ;main.c: 160: }
  4749                           ;main.c: 169: RA7Old = RA7;
  4750  02B9  3000               	movlw	0
  4751  02BA  1B8C               	btfsc	12,7	;volatile
  4752  02BB  3001               	movlw	1
  4753  02BC  00C3               	movwf	??_main
  4754  02BD  0843               	movf	??_main,w
  4755  02BE  00DD               	movwf	_RA7Old
  4756  02BF  2A27               	goto	l1955
  4757  02C0                     __end_of_main:	
  4758                           
  4759                           	psect	text1
  4760  02C0                     __ptext1:	
  4761 ;; *************** function ___awdiv *****************
  4762 ;; Defined at:
  4763 ;;		line 5 in file "C:\Program Files (x86)\Microchip\xc8\v1.21\sources\pic\awdiv.c"
  4764 ;; Parameters:    Size  Location     Type
  4765 ;;  divisor         2    7[BANK0 ] int 
  4766 ;;  dividend        2    9[BANK0 ] int 
  4767 ;; Auto vars:     Size  Location     Type
  4768 ;;  quotient        2   14[BANK0 ] int 
  4769 ;;  sign            1   13[BANK0 ] unsigned char 
  4770 ;;  counter         1   12[BANK0 ] unsigned char 
  4771 ;; Return value:  Size  Location     Type
  4772 ;;                  2    7[BANK0 ] int 
  4773 ;; Registers used:
  4774 ;;		wreg, status,2, status,0
  4775 ;; Tracked objects:
  4776 ;;		On entry : 0/0
  4777 ;;		On exit  : 0/0
  4778 ;;		Unchanged: 0/0
  4779 ;; Data sizes:     COMMON   BANK0   BANK1   BANK2   BANK3   BANK4   BANK5   BANK6   BANK7   BANK8   BANK9  BANK10  BANK1
      +1  BANK12  BANK13  BANK14  BANK15  BANK16  BANK17  BANK18  BANK19  BANK20  BANK21  BANK22  BANK23  BANK24  BANK25
  4780 ;;      Params:         0       4       0       0       0       0       0       0       0       0       0       0       
      +0       0       0       0       0       0       0       0       0       0       0       0       0       0       0
  4781 ;;      Locals:         0       4       0       0       0       0       0       0       0       0       0       0       
      +0       0       0       0       0       0       0       0       0       0       0       0       0       0       0
  4782 ;;      Temps:          0       1       0       0       0       0       0       0       0       0       0       0       
      +0       0       0       0       0       0       0       0       0       0       0       0       0       0       0
  4783 ;;      Totals:         0       9       0       0       0       0       0       0       0       0       0       0       
      +0       0       0       0       0       0       0       0       0       0       0       0       0       0       0
  4784 ;;Total ram usage:        9 bytes
  4785 ;; Hardware stack levels used:    1
  4786 ;; Hardware stack levels required when called:    2
  4787 ;; This function calls:
  4788 ;;		Nothing
  4789 ;; This function is called by:
  4790 ;;		_main
  4791 ;; This function uses a non-reentrant model
  4792 ;;
  4793                           
  4794                           
  4795                           ;psect for function ___awdiv
  4796  02C0                     ___awdiv:	
  4797                           
  4798                           ;incstack = 0
  4799                           ; Regs used in ___awdiv: [wreg+status,2+status,0]
  4800  02C0  0020               	movlb	0	; select bank0
  4801  02C1  01AD               	clrf	___awdiv@sign
  4802  02C2  1FA8               	btfss	___awdiv@divisor+1,7
  4803  02C3  2ACB               	goto	l2227
  4804  02C4  09A7               	comf	___awdiv@divisor,f
  4805  02C5  09A8               	comf	___awdiv@divisor+1,f
  4806  02C6  0AA7               	incf	___awdiv@divisor,f
  4807  02C7  1903               	skipnz
  4808  02C8  0AA8               	incf	___awdiv@divisor+1,f
  4809  02C9  01AD               	clrf	___awdiv@sign
  4810  02CA  0AAD               	incf	___awdiv@sign,f
  4811  02CB                     l2227:	
  4812  02CB  1FAA               	btfss	___awdiv@dividend+1,7
  4813  02CC  2AD6               	goto	l2233
  4814  02CD  09A9               	comf	___awdiv@dividend,f
  4815  02CE  09AA               	comf	___awdiv@dividend+1,f
  4816  02CF  0AA9               	incf	___awdiv@dividend,f
  4817  02D0  1903               	skipnz
  4818  02D1  0AAA               	incf	___awdiv@dividend+1,f
  4819  02D2  3001               	movlw	1
  4820  02D3  00AB               	movwf	??___awdiv
  4821  02D4  082B               	movf	??___awdiv,w
  4822  02D5  06AD               	xorwf	___awdiv@sign,f
  4823  02D6                     l2233:	
  4824  02D6  01AE               	clrf	___awdiv@quotient
  4825  02D7  01AF               	clrf	___awdiv@quotient+1
  4826  02D8  0828               	movf	___awdiv@divisor+1,w
  4827  02D9  0427               	iorwf	___awdiv@divisor,w
  4828  02DA  1903               	skipnz
  4829  02DB  2B05               	goto	l2255
  4830  02DC  01AC               	clrf	___awdiv@counter
  4831  02DD  0AAC               	incf	___awdiv@counter,f
  4832  02DE                     l2243:	
  4833  02DE  1BA8               	btfsc	___awdiv@divisor+1,7
  4834  02DF  2AEA               	goto	l2245
  4835  02E0  3001               	movlw	1
  4836  02E1                     u1575:	
  4837  02E1  35A7               	lslf	___awdiv@divisor,f
  4838  02E2  0DA8               	rlf	___awdiv@divisor+1,f
  4839  02E3  0B89               	decfsz	9,f
  4840  02E4  2AE1               	goto	u1575
  4841  02E5  3001               	movlw	1
  4842  02E6  00AB               	movwf	??___awdiv
  4843  02E7  082B               	movf	??___awdiv,w
  4844  02E8  07AC               	addwf	___awdiv@counter,f
  4845  02E9  2ADE               	goto	l2243
  4846  02EA                     l2245:	
  4847  02EA  3001               	movlw	1
  4848  02EB                     u1595:	
  4849  02EB  35AE               	lslf	___awdiv@quotient,f
  4850  02EC  0DAF               	rlf	___awdiv@quotient+1,f
  4851  02ED  0B89               	decfsz	9,f
  4852  02EE  2AEB               	goto	u1595
  4853  02EF  0828               	movf	___awdiv@divisor+1,w
  4854  02F0  022A               	subwf	___awdiv@dividend+1,w
  4855  02F1  1D03               	skipz
  4856  02F2  2AF5               	goto	u1605
  4857  02F3  0827               	movf	___awdiv@divisor,w
  4858  02F4  0229               	subwf	___awdiv@dividend,w
  4859  02F5                     u1605:	
  4860  02F5  1C03               	skipc
  4861  02F6  2AFC               	goto	l2251
  4862  02F7  0827               	movf	___awdiv@divisor,w
  4863  02F8  02A9               	subwf	___awdiv@dividend,f
  4864  02F9  0828               	movf	___awdiv@divisor+1,w
  4865  02FA  3BAA               	subwfb	___awdiv@dividend+1,f
  4866  02FB  142E               	bsf	___awdiv@quotient,0
  4867  02FC                     l2251:	
  4868  02FC  3001               	movlw	1
  4869  02FD                     u1615:	
  4870  02FD  36A8               	lsrf	___awdiv@divisor+1,f
  4871  02FE  0CA7               	rrf	___awdiv@divisor,f
  4872  02FF  0B89               	decfsz	9,f
  4873  0300  2AFD               	goto	u1615
  4874  0301  3001               	movlw	1
  4875  0302  02AC               	subwf	___awdiv@counter,f
  4876  0303  1D03               	btfss	3,2
  4877  0304  2AEA               	goto	l2245
  4878  0305                     l2255:	
  4879  0305  082D               	movf	___awdiv@sign,w
  4880  0306  1903               	btfsc	3,2
  4881  0307  2B0D               	goto	l2259
  4882  0308  09AE               	comf	___awdiv@quotient,f
  4883  0309  09AF               	comf	___awdiv@quotient+1,f
  4884  030A  0AAE               	incf	___awdiv@quotient,f
  4885  030B  1903               	skipnz
  4886  030C  0AAF               	incf	___awdiv@quotient+1,f
  4887  030D                     l2259:	
  4888  030D  082F               	movf	___awdiv@quotient+1,w
  4889  030E  01A8               	clrf	?___awdiv+1
  4890  030F  07A8               	addwf	?___awdiv+1,f
  4891  0310  082E               	movf	___awdiv@quotient,w
  4892  0311  01A7               	clrf	?___awdiv
  4893  0312  07A7               	addwf	?___awdiv,f
  4894  0313  0008               	return
  4895  0314                     __end_of___awdiv:	
  4896                           
  4897                           	psect	text2
  4898  0153                     __ptext2:	
  4899 ;; *************** function _sprintf *****************
  4900 ;; Defined at:
  4901 ;;		line 493 in file "C:\Program Files (x86)\Microchip\xc8\v1.21\sources\common\doprnt.c"
  4902 ;; Parameters:    Size  Location     Type
  4903 ;;  sp              1    wreg     PTR unsigned char 
  4904 ;;		 -> chBufADC(20), 
  4905 ;;  f               1   21[BANK0 ] PTR const unsigned char 
  4906 ;;		 -> STR_1(9), 
  4907 ;; Auto vars:     Size  Location     Type
  4908 ;;  sp              1   33[BANK0 ] PTR unsigned char 
  4909 ;;		 -> chBufADC(20), 
  4910 ;;  _val            4   29[BANK0 ] struct .
  4911 ;;  c               1   34[BANK0 ] char 
  4912 ;;  prec            1   28[BANK0 ] char 
  4913 ;;  flag            1   27[BANK0 ] unsigned char 
  4914 ;;  ap              1   26[BANK0 ] PTR void [1]
  4915 ;;		 -> ?_sprintf(2), 
  4916 ;; Return value:  Size  Location     Type
  4917 ;;                  2   21[BANK0 ] int 
  4918 ;; Registers used:
  4919 ;;		wreg, fsr0l, fsr0h, fsr1l, fsr1h, status,2, status,0, pclath, cstack
  4920 ;; Tracked objects:
  4921 ;;		On entry : 0/0
  4922 ;;		On exit  : 0/0
  4923 ;;		Unchanged: 0/0
  4924 ;; Data sizes:     COMMON   BANK0   BANK1   BANK2   BANK3   BANK4   BANK5   BANK6   BANK7   BANK8   BANK9  BANK10  BANK1
      +1  BANK12  BANK13  BANK14  BANK15  BANK16  BANK17  BANK18  BANK19  BANK20  BANK21  BANK22  BANK23  BANK24  BANK25
  4925 ;;      Params:         0       3       0       0       0       0       0       0       0       0       0       0       
      +0       0       0       0       0       0       0       0       0       0       0       0       0       0       0
  4926 ;;      Locals:         0       9       0       0       0       0       0       0       0       0       0       0       
      +0       0       0       0       0       0       0       0       0       0       0       0       0       0       0
  4927 ;;      Temps:          0       2       0       0       0       0       0       0       0       0       0       0       
      +0       0       0       0       0       0       0       0       0       0       0       0       0       0       0
  4928 ;;      Totals:         0      14       0       0       0       0       0       0       0       0       0       0       
      +0       0       0       0       0       0       0       0       0       0       0       0       0       0       0
  4929 ;;Total ram usage:       14 bytes
  4930 ;; Hardware stack levels used:    1
  4931 ;; Hardware stack levels required when called:    3
  4932 ;; This function calls:
  4933 ;;		___lwdiv
  4934 ;;		___lwmod
  4935 ;; This function is called by:
  4936 ;;		_main
  4937 ;; This function uses a non-reentrant model
  4938 ;;
  4939                           
  4940                           
  4941                           ;psect for function _sprintf
  4942  0153                     _sprintf:	
  4943                           
  4944                           ;incstack = 0
  4945                           ; Regs used in _sprintf: [wreg-fsr1h+status,2+status,0+pclath+cstack]
  4946                           ;sprintf@sp stored from wreg
  4947  0153  0020               	movlb	0	; select bank0
  4948  0154  00C1               	movwf	sprintf@sp
  4949                           
  4950                           ;doprnt.c: 494: va_list ap;
  4951                           ;doprnt.c: 499: signed char c;
  4952                           ;doprnt.c: 506: signed char prec;
  4953                           ;doprnt.c: 508: unsigned char flag;
  4954                           ;doprnt.c: 527: union {
  4955                           ;doprnt.c: 528: unsigned int _val;
  4956                           ;doprnt.c: 529: struct {
  4957                           ;doprnt.c: 530: const char * _cp;
  4958                           ;doprnt.c: 531: unsigned _len;
  4959                           ;doprnt.c: 532: } _str;
  4960                           ;doprnt.c: 533: } _val;
  4961                           ;doprnt.c: 542: *ap = __va_start();
  4962  0155  3036               	movlw	(?_sprintf+1)& (0+255)
  4963  0156  00B8               	movwf	??_sprintf
  4964  0157  0838               	movf	??_sprintf,w
  4965  0158  00BA               	movwf	sprintf@ap
  4966  0159                     l2099:	
  4967                           ;doprnt.c: 545: while(c = *f++) {
  4968                           
  4969  0159  0835               	movf	sprintf@f,w
  4970  015A  0AB5               	incf	sprintf@f,f
  4971  015B  3184               	movlp	high __stringtab
  4972  015C  000A               	callw
  4973  015D  3181               	pagesel	$	;select current page
  4974  015E  00B8               	movwf	??_sprintf
  4975  015F  0838               	movf	??_sprintf,w
  4976  0160  00C2               	movwf	sprintf@c
  4977  0161  08C2               	movf	sprintf@c,f
  4978  0162  1903               	btfsc	3,2
  4979  0163  2A0D               	goto	l2101
  4980                           
  4981                           ;doprnt.c: 547: if(c != '%')
  4982  0164  0842               	movf	sprintf@c,w
  4983  0165  3A25               	xorlw	37
  4984  0166  1903               	skipnz
  4985  0167  2974               	goto	l2055
  4986                           
  4987                           ;doprnt.c: 549: {
  4988                           ;doprnt.c: 550: ((*sp++ = (c)));
  4989  0168  0842               	movf	sprintf@c,w
  4990  0169  00B8               	movwf	??_sprintf
  4991  016A  0841               	movf	sprintf@sp,w
  4992  016B  0086               	movwf	6
  4993  016C  0187               	clrf	7
  4994  016D  0838               	movf	??_sprintf,w
  4995  016E  0081               	movwf	1
  4996  016F  3001               	movlw	1
  4997  0170  00B8               	movwf	??_sprintf
  4998  0171  0838               	movf	??_sprintf,w
  4999  0172  07C1               	addwf	sprintf@sp,f
  5000                           
  5001                           ;doprnt.c: 551: continue;
  5002  0173  2959               	goto	l2099
  5003  0174                     l2055:	
  5004                           
  5005                           ;doprnt.c: 552: }
  5006                           ;doprnt.c: 557: flag = 0;
  5007  0174  01BB               	clrf	sprintf@flag
  5008                           
  5009                           ;doprnt.c: 831: }
  5010                           
  5011                           ;doprnt.c: 822: continue;
  5012                           
  5013                           ;doprnt.c: 811: default:
  5014                           
  5015                           ;doprnt.c: 707: case 'i':
  5016                           ;doprnt.c: 708: break;
  5017                           
  5018                           ;doprnt.c: 706: case 'd':
  5019                           
  5020                           ;doprnt.c: 647: goto alldone;
  5021                           
  5022                           ;doprnt.c: 646: case 0:
  5023                           
  5024                           ;doprnt.c: 644: switch(c = *f++) {
  5025  0175  0835               	movf	sprintf@f,w
  5026  0176  0AB5               	incf	sprintf@f,f
  5027  0177  3184               	movlp	high __stringtab
  5028  0178  000A               	callw
  5029  0179  3181               	pagesel	$	;select current page
  5030  017A  00C2               	movwf	sprintf@c
  5031                           
  5032                           ; Switch size 1, requested type "space"
  5033                           ; Number of cases is 3, Range of values is 0 to 105
  5034                           ; switch strategies available:
  5035                           ; Name         Instructions Cycles
  5036                           ; simple_byte           10     6 (average)
  5037                           ; direct_byte          218     6 (fixed)
  5038                           ; jumptable            260     6 (fixed)
  5039                           ;	Chosen strategy is simple_byte
  5040  017B  3A00               	xorlw	0	; case 0
  5041  017C  1903               	skipnz
  5042  017D  2A0D               	goto	l2101
  5043  017E  3A64               	xorlw	100	; case 100
  5044  017F  1903               	skipnz
  5045  0180  2985               	goto	l2061
  5046  0181  3A0D               	xorlw	13	; case 105
  5047  0182  1903               	skipnz
  5048  0183  2985               	goto	l2061
  5049  0184  2959               	goto	l2099
  5050  0185                     l2061:	
  5051                           
  5052                           ;doprnt.c: 1260: {
  5053                           ;doprnt.c: 1266: _val._val = (int)(*(int *)__va_arg((*(int **)ap), (int)0));
  5054  0185  083A               	movf	sprintf@ap,w
  5055  0186  0086               	movwf	6
  5056  0187  0187               	clrf	7
  5057  0188  3F40               	moviw [0]fsr1
  5058  0189  00BD               	movwf	sprintf@_val
  5059  018A  3F41               	moviw [1]fsr1
  5060  018B  00BE               	movwf	sprintf@_val+1
  5061  018C  3002               	movlw	2
  5062  018D  00B8               	movwf	??_sprintf
  5063  018E  0838               	movf	??_sprintf,w
  5064  018F  07BA               	addwf	sprintf@ap,f
  5065                           
  5066                           ;doprnt.c: 1268: if((int)_val._val < 0) {
  5067  0190  1FBE               	btfss	sprintf@_val+1,7
  5068  0191  299B               	goto	l2071
  5069                           
  5070                           ;doprnt.c: 1269: flag |= 0x03;
  5071  0192  3003               	movlw	3
  5072  0193  00B8               	movwf	??_sprintf
  5073  0194  0838               	movf	??_sprintf,w
  5074  0195  04BB               	iorwf	sprintf@flag,f
  5075                           
  5076                           ;doprnt.c: 1270: _val._val = -_val._val;
  5077  0196  09BD               	comf	sprintf@_val,f
  5078  0197  09BE               	comf	sprintf@_val+1,f
  5079  0198  0ABD               	incf	sprintf@_val,f
  5080  0199  1903               	skipnz
  5081  019A  0ABE               	incf	sprintf@_val+1,f
  5082  019B                     l2071:	
  5083                           
  5084                           ;doprnt.c: 1271: }
  5085                           ;doprnt.c: 1273: }
  5086                           ;doprnt.c: 1312: for(c = 1 ; c != sizeof dpowers/sizeof dpowers[0] ; c++)
  5087  019B  01C2               	clrf	sprintf@c
  5088  019C  0AC2               	incf	sprintf@c,f
  5089  019D  0842               	movf	sprintf@c,w
  5090  019E  3A05               	xorlw	5
  5091  019F  1903               	btfsc	3,2
  5092  01A0  29BD               	goto	l2083
  5093  01A1                     l2075:	
  5094                           
  5095                           ;doprnt.c: 1313: if(_val._val < dpowers[c])
  5096  01A1  30ED               	movlw	low (_dpowers| (0+32768))
  5097  01A2  0084               	movwf	4
  5098  01A3  3084               	movlw	high (_dpowers| (0+32768))
  5099  01A4  0085               	movwf	5
  5100  01A5  3542               	lslf	sprintf@c,w
  5101  01A6  0784               	addwf	4,f
  5102  01A7  1803               	skipnc
  5103  01A8  0A85               	incf	5,f
  5104  01A9  3F00               	moviw [0]fsr0
  5105  01AA  00B8               	movwf	??_sprintf
  5106  01AB  3F01               	moviw [1]fsr0
  5107  01AC  00B9               	movwf	??_sprintf+1
  5108  01AD  0839               	movf	??_sprintf+1,w
  5109  01AE  023E               	subwf	sprintf@_val+1,w
  5110  01AF  1D03               	skipz
  5111  01B0  29B3               	goto	u1285
  5112  01B1  0838               	movf	??_sprintf,w
  5113  01B2  023D               	subwf	sprintf@_val,w
  5114  01B3                     u1285:	
  5115  01B3  1C03               	btfss	3,0
  5116  01B4  29BD               	goto	l2083
  5117                           
  5118                           ;doprnt.c: 1314: break;
  5119  01B5  3001               	movlw	1
  5120  01B6  00B8               	movwf	??_sprintf
  5121  01B7  0838               	movf	??_sprintf,w
  5122  01B8  07C2               	addwf	sprintf@c,f
  5123  01B9  0842               	movf	sprintf@c,w
  5124  01BA  3A05               	xorlw	5
  5125  01BB  1D03               	skipz
  5126  01BC  29A1               	goto	l2075
  5127  01BD                     l2083:	
  5128                           
  5129                           ;doprnt.c: 1429: {
  5130                           ;doprnt.c: 1445: if(flag & 0x03)
  5131  01BD  083B               	movf	sprintf@flag,w
  5132  01BE  3903               	andlw	3
  5133  01BF  1903               	btfsc	3,2
  5134  01C0  29CC               	goto	l2089
  5135                           
  5136                           ;doprnt.c: 1446: ((*sp++ = ('-')));
  5137  01C1  302D               	movlw	45
  5138  01C2  00B8               	movwf	??_sprintf
  5139  01C3  0841               	movf	sprintf@sp,w
  5140  01C4  0086               	movwf	6
  5141  01C5  0187               	clrf	7
  5142  01C6  0838               	movf	??_sprintf,w
  5143  01C7  0081               	movwf	1
  5144  01C8  3001               	movlw	1
  5145  01C9  00B8               	movwf	??_sprintf
  5146  01CA  0838               	movf	??_sprintf,w
  5147  01CB  07C1               	addwf	sprintf@sp,f
  5148  01CC                     l2089:	
  5149                           
  5150                           ;doprnt.c: 1476: }
  5151                           ;doprnt.c: 1479: prec = c;
  5152  01CC  0842               	movf	sprintf@c,w
  5153  01CD  00B8               	movwf	??_sprintf
  5154  01CE  0838               	movf	??_sprintf,w
  5155  01CF  00BC               	movwf	sprintf@prec
  5156  01D0                     l2097:	
  5157                           ;doprnt.c: 1481: while(prec--) {
  5158                           
  5159  01D0  30FF               	movlw	-1
  5160  01D1  00B8               	movwf	??_sprintf
  5161  01D2  0838               	movf	??_sprintf,w
  5162  01D3  07BC               	addwf	sprintf@prec,f
  5163  01D4  083C               	movf	sprintf@prec,w
  5164  01D5  3AFF               	xorlw	255
  5165  01D6  1903               	btfsc	3,2
  5166  01D7  2959               	goto	l2099
  5167                           
  5168                           ;doprnt.c: 1485: {
  5169                           ;doprnt.c: 1496: c = (_val._val / dpowers[prec]) % 10 + '0';
  5170  01D8  300A               	movlw	10
  5171  01D9  00AF               	movwf	?___lwmod
  5172  01DA  3000               	movlw	0
  5173  01DB  00B0               	movwf	?___lwmod+1
  5174  01DC  30ED               	movlw	low (_dpowers| (0+32768))
  5175  01DD  0084               	movwf	4
  5176  01DE  3084               	movlw	high (_dpowers| (0+32768))
  5177  01DF  0085               	movwf	5
  5178  01E0  353C               	lslf	sprintf@prec,w
  5179  01E1  0784               	addwf	4,f
  5180  01E2  1803               	skipnc
  5181  01E3  0A85               	incf	5,f
  5182  01E4  3F00               	moviw [0]fsr0
  5183  01E5  00A7               	movwf	?___lwdiv
  5184  01E6  3F01               	moviw [1]fsr0
  5185  01E7  00A8               	movwf	?___lwdiv+1
  5186  01E8  083E               	movf	sprintf@_val+1,w
  5187  01E9  01AA               	clrf	?___lwdiv+3
  5188  01EA  07AA               	addwf	?___lwdiv+3,f
  5189  01EB  083D               	movf	sprintf@_val,w
  5190  01EC  01A9               	clrf	?___lwdiv+2
  5191  01ED  07A9               	addwf	?___lwdiv+2,f
  5192  01EE  3183  239B  3181   	fcall	___lwdiv
  5193  01F1  0020               	movlb	0	; select bank0
  5194  01F2  0828               	movf	?___lwdiv+1,w
  5195  01F3  01B2               	clrf	?___lwmod+3
  5196  01F4  07B2               	addwf	?___lwmod+3,f
  5197  01F5  0827               	movf	?___lwdiv,w
  5198  01F6  01B1               	clrf	?___lwmod+2
  5199  01F7  07B1               	addwf	?___lwmod+2,f
  5200  01F8  3183  23D2  3181   	fcall	___lwmod
  5201  01FB  0020               	movlb	0	; select bank0
  5202  01FC  082F               	movf	?___lwmod,w
  5203  01FD  3E30               	addlw	48
  5204  01FE  00B8               	movwf	??_sprintf
  5205  01FF  0838               	movf	??_sprintf,w
  5206  0200  00C2               	movwf	sprintf@c
  5207                           
  5208                           ;doprnt.c: 1530: }
  5209                           ;doprnt.c: 1531: ((*sp++ = (c)));
  5210  0201  0842               	movf	sprintf@c,w
  5211  0202  00B8               	movwf	??_sprintf
  5212  0203  0841               	movf	sprintf@sp,w
  5213  0204  0086               	movwf	6
  5214  0205  0187               	clrf	7
  5215  0206  0838               	movf	??_sprintf,w
  5216  0207  0081               	movwf	1
  5217  0208  3001               	movlw	1
  5218  0209  00B8               	movwf	??_sprintf
  5219  020A  0838               	movf	??_sprintf,w
  5220  020B  07C1               	addwf	sprintf@sp,f
  5221  020C  29D0               	goto	l2097
  5222  020D                     l2101:	
  5223                           ;doprnt.c: 1532: }
  5224                           ;doprnt.c: 1540: }
  5225                           ;doprnt.c: 1542: alldone:
  5226                           
  5227                           
  5228                           ;doprnt.c: 1545: *sp = 0;
  5229  020D  0841               	movf	sprintf@sp,w
  5230  020E  0086               	movwf	6
  5231  020F  0187               	clrf	7
  5232  0210  0181               	clrf	1
  5233  0211  0008               	return
  5234  0212                     __end_of_sprintf:	
  5235                           ;doprnt.c: 1547: return 0;
  5236                           ;	Return value of _sprintf is never used
  5237                           
  5238                           
  5239                           	psect	text3
  5240  03D2                     __ptext3:	
  5241 ;; *************** function ___lwmod *****************
  5242 ;; Defined at:
  5243 ;;		line 5 in file "C:\Program Files (x86)\Microchip\xc8\v1.21\sources\pic\lwmod.c"
  5244 ;; Parameters:    Size  Location     Type
  5245 ;;  divisor         2   15[BANK0 ] unsigned int 
  5246 ;;  dividend        2   17[BANK0 ] unsigned int 
  5247 ;; Auto vars:     Size  Location     Type
  5248 ;;  counter         1   20[BANK0 ] unsigned char 
  5249 ;; Return value:  Size  Location     Type
  5250 ;;                  2   15[BANK0 ] unsigned int 
  5251 ;; Registers used:
  5252 ;;		wreg, status,2, status,0
  5253 ;; Tracked objects:
  5254 ;;		On entry : 0/0
  5255 ;;		On exit  : 0/0
  5256 ;;		Unchanged: 0/0
  5257 ;; Data sizes:     COMMON   BANK0   BANK1   BANK2   BANK3   BANK4   BANK5   BANK6   BANK7   BANK8   BANK9  BANK10  BANK1
      +1  BANK12  BANK13  BANK14  BANK15  BANK16  BANK17  BANK18  BANK19  BANK20  BANK21  BANK22  BANK23  BANK24  BANK25
  5258 ;;      Params:         0       4       0       0       0       0       0       0       0       0       0       0       
      +0       0       0       0       0       0       0       0       0       0       0       0       0       0       0
  5259 ;;      Locals:         0       1       0       0       0       0       0       0       0       0       0       0       
      +0       0       0       0       0       0       0       0       0       0       0       0       0       0       0
  5260 ;;      Temps:          0       1       0       0       0       0       0       0       0       0       0       0       
      +0       0       0       0       0       0       0       0       0       0       0       0       0       0       0
  5261 ;;      Totals:         0       6       0       0       0       0       0       0       0       0       0       0       
      +0       0       0       0       0       0       0       0       0       0       0       0       0       0       0
  5262 ;;Total ram usage:        6 bytes
  5263 ;; Hardware stack levels used:    1
  5264 ;; Hardware stack levels required when called:    2
  5265 ;; This function calls:
  5266 ;;		Nothing
  5267 ;; This function is called by:
  5268 ;;		_sprintf
  5269 ;; This function uses a non-reentrant model
  5270 ;;
  5271                           
  5272                           
  5273                           ;psect for function ___lwmod
  5274  03D2                     ___lwmod:	
  5275                           
  5276                           ;incstack = 0
  5277                           ; Regs used in ___lwmod: [wreg+status,2+status,0]
  5278  03D2  0020               	movlb	0	; select bank0
  5279  03D3  0830               	movf	___lwmod@divisor+1,w
  5280  03D4  042F               	iorwf	___lwmod@divisor,w
  5281  03D5  1903               	skipnz
  5282  03D6  2BFA               	goto	l2415
  5283  03D7  01B4               	clrf	___lwmod@counter
  5284  03D8  0AB4               	incf	___lwmod@counter,f
  5285  03D9                     l2405:	
  5286  03D9  1BB0               	btfsc	___lwmod@divisor+1,7
  5287  03DA  2BE5               	goto	l2407
  5288  03DB  3001               	movlw	1
  5289  03DC                     u1985:	
  5290  03DC  35AF               	lslf	___lwmod@divisor,f
  5291  03DD  0DB0               	rlf	___lwmod@divisor+1,f
  5292  03DE  0B89               	decfsz	9,f
  5293  03DF  2BDC               	goto	u1985
  5294  03E0  3001               	movlw	1
  5295  03E1  00B3               	movwf	??___lwmod
  5296  03E2  0833               	movf	??___lwmod,w
  5297  03E3  07B4               	addwf	___lwmod@counter,f
  5298  03E4  2BD9               	goto	l2405
  5299  03E5                     l2407:	
  5300  03E5  0830               	movf	___lwmod@divisor+1,w
  5301  03E6  0232               	subwf	___lwmod@dividend+1,w
  5302  03E7  1D03               	skipz
  5303  03E8  2BEB               	goto	u2005
  5304  03E9  082F               	movf	___lwmod@divisor,w
  5305  03EA  0231               	subwf	___lwmod@dividend,w
  5306  03EB                     u2005:	
  5307  03EB  1C03               	skipc
  5308  03EC  2BF1               	goto	l2411
  5309  03ED  082F               	movf	___lwmod@divisor,w
  5310  03EE  02B1               	subwf	___lwmod@dividend,f
  5311  03EF  0830               	movf	___lwmod@divisor+1,w
  5312  03F0  3BB2               	subwfb	___lwmod@dividend+1,f
  5313  03F1                     l2411:	
  5314  03F1  3001               	movlw	1
  5315  03F2                     u2015:	
  5316  03F2  36B0               	lsrf	___lwmod@divisor+1,f
  5317  03F3  0CAF               	rrf	___lwmod@divisor,f
  5318  03F4  0B89               	decfsz	9,f
  5319  03F5  2BF2               	goto	u2015
  5320  03F6  3001               	movlw	1
  5321  03F7  02B4               	subwf	___lwmod@counter,f
  5322  03F8  1D03               	btfss	3,2
  5323  03F9  2BE5               	goto	l2407
  5324  03FA                     l2415:	
  5325  03FA  0832               	movf	___lwmod@dividend+1,w
  5326  03FB  01B0               	clrf	?___lwmod+1
  5327  03FC  07B0               	addwf	?___lwmod+1,f
  5328  03FD  0831               	movf	___lwmod@dividend,w
  5329  03FE  01AF               	clrf	?___lwmod
  5330  03FF  07AF               	addwf	?___lwmod,f
  5331  0400  0008               	return
  5332  0401                     __end_of___lwmod:	
  5333                           
  5334                           	psect	text4
  5335  039B                     __ptext4:	
  5336 ;; *************** function ___lwdiv *****************
  5337 ;; Defined at:
  5338 ;;		line 5 in file "C:\Program Files (x86)\Microchip\xc8\v1.21\sources\pic\lwdiv.c"
  5339 ;; Parameters:    Size  Location     Type
  5340 ;;  divisor         2    7[BANK0 ] unsigned int 
  5341 ;;  dividend        2    9[BANK0 ] unsigned int 
  5342 ;; Auto vars:     Size  Location     Type
  5343 ;;  quotient        2   12[BANK0 ] unsigned int 
  5344 ;;  counter         1   14[BANK0 ] unsigned char 
  5345 ;; Return value:  Size  Location     Type
  5346 ;;                  2    7[BANK0 ] unsigned int 
  5347 ;; Registers used:
  5348 ;;		wreg, status,2, status,0
  5349 ;; Tracked objects:
  5350 ;;		On entry : 0/0
  5351 ;;		On exit  : 0/0
  5352 ;;		Unchanged: 0/0
  5353 ;; Data sizes:     COMMON   BANK0   BANK1   BANK2   BANK3   BANK4   BANK5   BANK6   BANK7   BANK8   BANK9  BANK10  BANK1
      +1  BANK12  BANK13  BANK14  BANK15  BANK16  BANK17  BANK18  BANK19  BANK20  BANK21  BANK22  BANK23  BANK24  BANK25
  5354 ;;      Params:         0       4       0       0       0       0       0       0       0       0       0       0       
      +0       0       0       0       0       0       0       0       0       0       0       0       0       0       0
  5355 ;;      Locals:         0       3       0       0       0       0       0       0       0       0       0       0       
      +0       0       0       0       0       0       0       0       0       0       0       0       0       0       0
  5356 ;;      Temps:          0       1       0       0       0       0       0       0       0       0       0       0       
      +0       0       0       0       0       0       0       0       0       0       0       0       0       0       0
  5357 ;;      Totals:         0       8       0       0       0       0       0       0       0       0       0       0       
      +0       0       0       0       0       0       0       0       0       0       0       0       0       0       0
  5358 ;;Total ram usage:        8 bytes
  5359 ;; Hardware stack levels used:    1
  5360 ;; Hardware stack levels required when called:    2
  5361 ;; This function calls:
  5362 ;;		Nothing
  5363 ;; This function is called by:
  5364 ;;		_sprintf
  5365 ;; This function uses a non-reentrant model
  5366 ;;
  5367                           
  5368                           
  5369                           ;psect for function ___lwdiv
  5370  039B                     ___lwdiv:	
  5371                           
  5372                           ;incstack = 0
  5373                           ; Regs used in ___lwdiv: [wreg+status,2+status,0]
  5374  039B  0020               	movlb	0	; select bank0
  5375  039C  01AC               	clrf	___lwdiv@quotient
  5376  039D  01AD               	clrf	___lwdiv@quotient+1
  5377  039E  0828               	movf	___lwdiv@divisor+1,w
  5378  039F  0427               	iorwf	___lwdiv@divisor,w
  5379  03A0  1903               	skipnz
  5380  03A1  2BCB               	goto	l2393
  5381  03A2  01AE               	clrf	___lwdiv@counter
  5382  03A3  0AAE               	incf	___lwdiv@counter,f
  5383  03A4                     l2381:	
  5384  03A4  1BA8               	btfsc	___lwdiv@divisor+1,7
  5385  03A5  2BB0               	goto	l2383
  5386  03A6  3001               	movlw	1
  5387  03A7                     u1915:	
  5388  03A7  35A7               	lslf	___lwdiv@divisor,f
  5389  03A8  0DA8               	rlf	___lwdiv@divisor+1,f
  5390  03A9  0B89               	decfsz	9,f
  5391  03AA  2BA7               	goto	u1915
  5392  03AB  3001               	movlw	1
  5393  03AC  00AB               	movwf	??___lwdiv
  5394  03AD  082B               	movf	??___lwdiv,w
  5395  03AE  07AE               	addwf	___lwdiv@counter,f
  5396  03AF  2BA4               	goto	l2381
  5397  03B0                     l2383:	
  5398  03B0  3001               	movlw	1
  5399  03B1                     u1935:	
  5400  03B1  35AC               	lslf	___lwdiv@quotient,f
  5401  03B2  0DAD               	rlf	___lwdiv@quotient+1,f
  5402  03B3  0B89               	decfsz	9,f
  5403  03B4  2BB1               	goto	u1935
  5404  03B5  0828               	movf	___lwdiv@divisor+1,w
  5405  03B6  022A               	subwf	___lwdiv@dividend+1,w
  5406  03B7  1D03               	skipz
  5407  03B8  2BBB               	goto	u1945
  5408  03B9  0827               	movf	___lwdiv@divisor,w
  5409  03BA  0229               	subwf	___lwdiv@dividend,w
  5410  03BB                     u1945:	
  5411  03BB  1C03               	skipc
  5412  03BC  2BC2               	goto	l2389
  5413  03BD  0827               	movf	___lwdiv@divisor,w
  5414  03BE  02A9               	subwf	___lwdiv@dividend,f
  5415  03BF  0828               	movf	___lwdiv@divisor+1,w
  5416  03C0  3BAA               	subwfb	___lwdiv@dividend+1,f
  5417  03C1  142C               	bsf	___lwdiv@quotient,0
  5418  03C2                     l2389:	
  5419  03C2  3001               	movlw	1
  5420  03C3                     u1955:	
  5421  03C3  36A8               	lsrf	___lwdiv@divisor+1,f
  5422  03C4  0CA7               	rrf	___lwdiv@divisor,f
  5423  03C5  0B89               	decfsz	9,f
  5424  03C6  2BC3               	goto	u1955
  5425  03C7  3001               	movlw	1
  5426  03C8  02AE               	subwf	___lwdiv@counter,f
  5427  03C9  1D03               	btfss	3,2
  5428  03CA  2BB0               	goto	l2383
  5429  03CB                     l2393:	
  5430  03CB  082D               	movf	___lwdiv@quotient+1,w
  5431  03CC  01A8               	clrf	?___lwdiv+1
  5432  03CD  07A8               	addwf	?___lwdiv+1,f
  5433  03CE  082C               	movf	___lwdiv@quotient,w
  5434  03CF  01A7               	clrf	?___lwdiv
  5435  03D0  07A7               	addwf	?___lwdiv,f
  5436  03D1  0008               	return
  5437  03D2                     __end_of___lwdiv:	
  5438                           
  5439                           	psect	text5
  5440  045E                     __ptext5:	
  5441 ;; *************** function _eeprom_write *****************
  5442 ;; Defined at:
  5443 ;;		line 7 in file "C:\Program Files (x86)\Microchip\xc8\v1.21\sources\pic\eewrite.c"
  5444 ;; Parameters:    Size  Location     Type
  5445 ;;  addr            1    wreg     unsigned char 
  5446 ;;  value           1    7[BANK0 ] unsigned char 
  5447 ;; Auto vars:     Size  Location     Type
  5448 ;;  addr            1   10[BANK0 ] unsigned char 
  5449 ;; Return value:  Size  Location     Type
  5450 ;;		None               void
  5451 ;; Registers used:
  5452 ;;		wreg, status,2, status,0
  5453 ;; Tracked objects:
  5454 ;;		On entry : 0/0
  5455 ;;		On exit  : 0/0
  5456 ;;		Unchanged: 0/0
  5457 ;; Data sizes:     COMMON   BANK0   BANK1   BANK2   BANK3   BANK4   BANK5   BANK6   BANK7   BANK8   BANK9  BANK10  BANK1
      +1  BANK12  BANK13  BANK14  BANK15  BANK16  BANK17  BANK18  BANK19  BANK20  BANK21  BANK22  BANK23  BANK24  BANK25
  5458 ;;      Params:         0       1       0       0       0       0       0       0       0       0       0       0       
      +0       0       0       0       0       0       0       0       0       0       0       0       0       0       0
  5459 ;;      Locals:         0       1       0       0       0       0       0       0       0       0       0       0       
      +0       0       0       0       0       0       0       0       0       0       0       0       0       0       0
  5460 ;;      Temps:          0       2       0       0       0       0       0       0       0       0       0       0       
      +0       0       0       0       0       0       0       0       0       0       0       0       0       0       0
  5461 ;;      Totals:         0       4       0       0       0       0       0       0       0       0       0       0       
      +0       0       0       0       0       0       0       0       0       0       0       0       0       0       0
  5462 ;;Total ram usage:        4 bytes
  5463 ;; Hardware stack levels used:    1
  5464 ;; Hardware stack levels required when called:    2
  5465 ;; This function calls:
  5466 ;;		Nothing
  5467 ;; This function is called by:
  5468 ;;		_main
  5469 ;; This function uses a non-reentrant model
  5470 ;;
  5471                           
  5472                           
  5473                           ;psect for function _eeprom_write
  5474  045E                     _eeprom_write:	
  5475                           
  5476                           ;incstack = 0
  5477                           ; Regs used in _eeprom_write: [wreg+status,2+status,0]
  5478                           ;eeprom_write@addr stored from wreg
  5479  045E  0020               	movlb	0	; select bank0
  5480  045F  00AA               	movwf	eeprom_write@addr
  5481  0460                     l534:	
  5482  0460  0023               	movlb	3	; select bank3
  5483  0461  1895               	btfsc	21,1	;volsfr
  5484  0462  2C60               	goto	l534
  5485  0463  0020               	movlb	0	; select bank0
  5486  0464  082A               	movf	eeprom_write@addr,w
  5487  0465  00A8               	movwf	??_eeprom_write
  5488  0466  01A9               	clrf	??_eeprom_write+1
  5489  0467  0828               	movf	??_eeprom_write,w
  5490  0468  0023               	movlb	3	; select bank3
  5491  0469  0091               	movwf	17	;volatile
  5492  046A  0020               	movlb	0	; select bank0
  5493  046B  0829               	movf	??_eeprom_write+1,w
  5494  046C  0023               	movlb	3	; select bank3
  5495  046D  0092               	movwf	18	;volatile
  5496  046E  0020               	movlb	0	; select bank0
  5497  046F  0827               	movf	eeprom_write@value,w
  5498  0470  0023               	movlb	3	; select bank3
  5499  0471  0093               	movwf	19	;volatile
  5500  0472  303F               	movlw	63
  5501  0473  0020               	movlb	0	; select bank0
  5502  0474  00A8               	movwf	??_eeprom_write
  5503  0475  0828               	movf	??_eeprom_write,w
  5504  0476  0023               	movlb	3	; select bank3
  5505  0477  0595               	andwf	21,f	;volsfr
  5506  0478  0020               	movlb	0	; select bank0
  5507  0479  1003               	bcf	3,0	;volatile
  5508  047A  1B8B               	btfsc	11,7	;volatile
  5509  047B  1403               	bsf	3,0	;volatile
  5510  047C  138B               	bcf	11,7	;volatile
  5511  047D  0023               	movlb	3	; select bank3
  5512  047E  1515               	bsf	21,2	;volsfr
  5513  047F  3055               	movlw	85
  5514  0480  0096               	movwf	22	;volsfr
  5515  0481  30AA               	movlw	170
  5516  0482  0096               	movwf	22	;volsfr
  5517  0483  1495               	bsf	21,1	;volsfr
  5518  0484  1115               	bcf	21,2	;volsfr
  5519  0485  0020               	movlb	0	; select bank0
  5520  0486  1C03               	btfss	3,0	;volatile
  5521  0487  0008               	return
  5522  0488  178B               	bsf	11,7	;volatile
  5523  0489  0008               	return
  5524  048A                     __end_of_eeprom_write:	
  5525                           
  5526                           	psect	text6
  5527  0500                     __ptext6:	
  5528 ;; *************** function _DACSet *****************
  5529 ;; Defined at:
  5530 ;;		line 55 in file "DAC.c"
  5531 ;; Parameters:    Size  Location     Type
  5532 ;;  Val             1    wreg     unsigned char 
  5533 ;; Auto vars:     Size  Location     Type
  5534 ;;  Val             1    8[BANK0 ] unsigned char 
  5535 ;; Return value:  Size  Location     Type
  5536 ;;		None               void
  5537 ;; Registers used:
  5538 ;;		wreg, status,2
  5539 ;; Tracked objects:
  5540 ;;		On entry : 0/0
  5541 ;;		On exit  : 0/0
  5542 ;;		Unchanged: 0/0
  5543 ;; Data sizes:     COMMON   BANK0   BANK1   BANK2   BANK3   BANK4   BANK5   BANK6   BANK7   BANK8   BANK9  BANK10  BANK1
      +1  BANK12  BANK13  BANK14  BANK15  BANK16  BANK17  BANK18  BANK19  BANK20  BANK21  BANK22  BANK23  BANK24  BANK25
  5544 ;;      Params:         0       0       0       0       0       0       0       0       0       0       0       0       
      +0       0       0       0       0       0       0       0       0       0       0       0       0       0       0
  5545 ;;      Locals:         0       1       0       0       0       0       0       0       0       0       0       0       
      +0       0       0       0       0       0       0       0       0       0       0       0       0       0       0
  5546 ;;      Temps:          0       1       0       0       0       0       0       0       0       0       0       0       
      +0       0       0       0       0       0       0       0       0       0       0       0       0       0       0
  5547 ;;      Totals:         0       2       0       0       0       0       0       0       0       0       0       0       
      +0       0       0       0       0       0       0       0       0       0       0       0       0       0       0
  5548 ;;Total ram usage:        2 bytes
  5549 ;; Hardware stack levels used:    1
  5550 ;; Hardware stack levels required when called:    2
  5551 ;; This function calls:
  5552 ;;		Nothing
  5553 ;; This function is called by:
  5554 ;;		_main
  5555 ;; This function uses a non-reentrant model
  5556 ;;
  5557                           
  5558                           
  5559                           ;psect for function _DACSet
  5560  0500                     _DACSet:	
  5561                           
  5562                           ;incstack = 0
  5563                           ; Regs used in _DACSet: [wreg+status,2]
  5564                           ;DACSet@Val stored from wreg
  5565  0500  0020               	movlb	0	; select bank0
  5566  0501  00A8               	movwf	DACSet@Val
  5567                           
  5568                           ;DAC.c: 58: ADCON0Tmp = ADCON0;
  5569  0502  0021               	movlb	1	; select bank1
  5570  0503  081D               	movf	29,w	;volatile
  5571  0504  0020               	movlb	0	; select bank0
  5572  0505  00A7               	movwf	??_DACSet
  5573  0506  0827               	movf	??_DACSet,w
  5574  0507  00DC               	movwf	_ADCON0Tmp
  5575                           
  5576                           ;DAC.c: 60: ADCON0 = (ADCON0&0b10000011)|0b01111000;
  5577  0508  0021               	movlb	1	; select bank1
  5578  0509  081D               	movf	29,w	;volatile
  5579  050A  3983               	andlw	131
  5580  050B  3878               	iorlw	120
  5581  050C  009D               	movwf	29	;volatile
  5582                           
  5583                           ;DAC.c: 61: DAC1CON1 = Val;
  5584  050D  0020               	movlb	0	; select bank0
  5585  050E  0828               	movf	DACSet@Val,w
  5586  050F  0022               	movlb	2	; select bank2
  5587  0510  0099               	movwf	25	;volatile
  5588  0511  0008               	return
  5589  0512                     __end_of_DACSet:	
  5590                           
  5591                           	psect	text7
  5592  04AE                     __ptext7:	
  5593 ;; *************** function _eeprom_read *****************
  5594 ;; Defined at:
  5595 ;;		line 7 in file "C:\Program Files (x86)\Microchip\xc8\v1.21\sources\pic\eeread.c"
  5596 ;; Parameters:    Size  Location     Type
  5597 ;;  addr            1    wreg     unsigned char 
  5598 ;; Auto vars:     Size  Location     Type
  5599 ;;  addr            1   10[BANK0 ] unsigned char 
  5600 ;; Return value:  Size  Location     Type
  5601 ;;                  1    wreg      unsigned char 
  5602 ;; Registers used:
  5603 ;;		wreg, status,2, status,0
  5604 ;; Tracked objects:
  5605 ;;		On entry : 0/0
  5606 ;;		On exit  : 0/0
  5607 ;;		Unchanged: 0/0
  5608 ;; Data sizes:     COMMON   BANK0   BANK1   BANK2   BANK3   BANK4   BANK5   BANK6   BANK7   BANK8   BANK9  BANK10  BANK1
      +1  BANK12  BANK13  BANK14  BANK15  BANK16  BANK17  BANK18  BANK19  BANK20  BANK21  BANK22  BANK23  BANK24  BANK25
  5609 ;;      Params:         0       0       0       0       0       0       0       0       0       0       0       0       
      +0       0       0       0       0       0       0       0       0       0       0       0       0       0       0
  5610 ;;      Locals:         0       1       0       0       0       0       0       0       0       0       0       0       
      +0       0       0       0       0       0       0       0       0       0       0       0       0       0       0
  5611 ;;      Temps:          0       3       0       0       0       0       0       0       0       0       0       0       
      +0       0       0       0       0       0       0       0       0       0       0       0       0       0       0
  5612 ;;      Totals:         0       4       0       0       0       0       0       0       0       0       0       0       
      +0       0       0       0       0       0       0       0       0       0       0       0       0       0       0
  5613 ;;Total ram usage:        4 bytes
  5614 ;; Hardware stack levels used:    1
  5615 ;; Hardware stack levels required when called:    2
  5616 ;; This function calls:
  5617 ;;		Nothing
  5618 ;; This function is called by:
  5619 ;;		_main
  5620 ;; This function uses a non-reentrant model
  5621 ;;
  5622                           
  5623                           
  5624                           ;psect for function _eeprom_read
  5625  04AE                     _eeprom_read:	
  5626                           
  5627                           ;incstack = 0
  5628                           ; Regs used in _eeprom_read: [wreg+status,2+status,0]
  5629                           ;eeprom_read@addr stored from wreg
  5630  04AE  0020               	movlb	0	; select bank0
  5631  04AF  00AA               	movwf	eeprom_read@addr
  5632  04B0  2CB2               	goto	l512
  5633  04B1                     u1211:	
  5634  04B1  0020               	movlb	0	; select bank0
  5635  04B2                     l512:	
  5636  04B2  0064               	clrwdt	;# 
  5637  04B3  0023               	movlb	3	; select bank3
  5638  04B4  1895               	btfsc	21,1	;volsfr
  5639  04B5  2CB1               	goto	u1211
  5640  04B6  0020               	movlb	0	; select bank0
  5641  04B7  082A               	movf	eeprom_read@addr,w
  5642  04B8  00A7               	movwf	??_eeprom_read
  5643  04B9  01A8               	clrf	??_eeprom_read+1
  5644  04BA  0827               	movf	??_eeprom_read,w
  5645  04BB  0023               	movlb	3	; select bank3
  5646  04BC  0091               	movwf	17	;volatile
  5647  04BD  0020               	movlb	0	; select bank0
  5648  04BE  0828               	movf	??_eeprom_read+1,w
  5649  04BF  0023               	movlb	3	; select bank3
  5650  04C0  0092               	movwf	18	;volatile
  5651  04C1  303F               	movlw	63
  5652  04C2  0020               	movlb	0	; select bank0
  5653  04C3  00A9               	movwf	??_eeprom_read+2
  5654  04C4  0829               	movf	??_eeprom_read+2,w
  5655  04C5  0023               	movlb	3	; select bank3
  5656  04C6  0595               	andwf	21,f	;volsfr
  5657  04C7  1415               	bsf	21,0	;volsfr
  5658  04C8  1003               	clrc
  5659  04C9  1815               	btfsc	21,0	;volsfr
  5660  04CA  1403               	setc
  5661  04CB  3000               	movlw	0
  5662  04CC  3D09               	addwfc	9,w
  5663  04CD  0813               	movf	19,w	;volatile
  5664  04CE  0008               	return
  5665  04CF                     __end_of_eeprom_read:	
  5666                           
  5667                           	psect	text8
  5668  04CF                     __ptext8:	
  5669 ;; *************** function _InitApp *****************
  5670 ;; Defined at:
  5671 ;;		line 29 in file "user.c"
  5672 ;; Parameters:    Size  Location     Type
  5673 ;;		None
  5674 ;; Auto vars:     Size  Location     Type
  5675 ;;		None
  5676 ;; Return value:  Size  Location     Type
  5677 ;;		None               void
  5678 ;; Registers used:
  5679 ;;		wreg, status,2, status,0, pclath, cstack
  5680 ;; Tracked objects:
  5681 ;;		On entry : 0/0
  5682 ;;		On exit  : 0/0
  5683 ;;		Unchanged: 0/0
  5684 ;; Data sizes:     COMMON   BANK0   BANK1   BANK2   BANK3   BANK4   BANK5   BANK6   BANK7   BANK8   BANK9  BANK10  BANK1
      +1  BANK12  BANK13  BANK14  BANK15  BANK16  BANK17  BANK18  BANK19  BANK20  BANK21  BANK22  BANK23  BANK24  BANK25
  5685 ;;      Params:         0       0       0       0       0       0       0       0       0       0       0       0       
      +0       0       0       0       0       0       0       0       0       0       0       0       0       0       0
  5686 ;;      Locals:         0       0       0       0       0       0       0       0       0       0       0       0       
      +0       0       0       0       0       0       0       0       0       0       0       0       0       0       0
  5687 ;;      Temps:          0       0       0       0       0       0       0       0       0       0       0       0       
      +0       0       0       0       0       0       0       0       0       0       0       0       0       0       0
  5688 ;;      Totals:         0       0       0       0       0       0       0       0       0       0       0       0       
      +0       0       0       0       0       0       0       0       0       0       0       0       0       0       0
  5689 ;;Total ram usage:        0 bytes
  5690 ;; Hardware stack levels used:    1
  5691 ;; Hardware stack levels required when called:    5
  5692 ;; This function calls:
  5693 ;;		_ADCIni
  5694 ;;		_PWMIni
  5695 ;;		_UARTIni
  5696 ;;		_DACInit
  5697 ;;		_DioIni
  5698 ;; This function is called by:
  5699 ;;		_main
  5700 ;; This function uses a non-reentrant model
  5701 ;;
  5702                           
  5703                           
  5704                           ;psect for function _InitApp
  5705  04CF                     _InitApp:	
  5706                           
  5707                           ;user.c: 31: TMR0 = 205;
  5708                           
  5709                           ;incstack = 0
  5710                           ; Regs used in _InitApp: [wreg+status,2+status,0+pclath+cstack]
  5711  04CF  30CD               	movlw	205
  5712  04D0  0020               	movlb	0	; select bank0
  5713  04D1  0095               	movwf	21	;volatile
  5714                           
  5715                           ;user.c: 32: INTCON = 0b10100000;
  5716  04D2  30A0               	movlw	160
  5717  04D3  008B               	movwf	11	;volatile
  5718                           
  5719                           ;user.c: 38: OPTION_REG = 0b10000011;
  5720  04D4  3083               	movlw	131
  5721  04D5  0021               	movlb	1	; select bank1
  5722  04D6  0095               	movwf	21	;volatile
  5723                           
  5724                           ;user.c: 47: TRISC2 = 0;
  5725  04D7  110E               	bcf	14,2	;volatile
  5726                           
  5727                           ;user.c: 49: ADCIni(1, 0);
  5728  04D8  0020               	movlb	0	; select bank0
  5729  04D9  01A7               	clrf	?_ADCIni
  5730  04DA  3001               	movlw	1
  5731  04DB  3183  2363  3184   	fcall	_ADCIni
  5732                           
  5733                           ;user.c: 51: DACInit();
  5734  04DE  3185  2512  3184   	fcall	_DACInit
  5735                           
  5736                           ;user.c: 54: PWMIni();
  5737  04E1  3185  256D  3184   	fcall	_PWMIni
  5738                           
  5739                           ;user.c: 57: DioIni();
  5740  04E4  3185  2554  3184   	fcall	_DioIni
  5741                           
  5742                           ;user.c: 60: UARTIni();
  5743  04E7  3185  251F         	fcall	_UARTIni
  5744                           
  5745                           ;user.c: 65: TMR0IE = 1;
  5746  04E9  168B               	bsf	11,5	;volatile
  5747                           
  5748                           ;user.c: 66: (GIE = 1);
  5749  04EA  178B               	bsf	11,7	;volatile
  5750  04EB  0008               	return
  5751  04EC                     __end_of_InitApp:	
  5752                           
  5753                           	psect	text9
  5754  0554                     __ptext9:	
  5755 ;; *************** function _DioIni *****************
  5756 ;; Defined at:
  5757 ;;		line 4 in file "dio.c"
  5758 ;; Parameters:    Size  Location     Type
  5759 ;;		None
  5760 ;; Auto vars:     Size  Location     Type
  5761 ;;		None
  5762 ;; Return value:  Size  Location     Type
  5763 ;;		None               void
  5764 ;; Registers used:
  5765 ;;		None
  5766 ;; Tracked objects:
  5767 ;;		On entry : 0/0
  5768 ;;		On exit  : 0/0
  5769 ;;		Unchanged: 0/0
  5770 ;; Data sizes:     COMMON   BANK0   BANK1   BANK2   BANK3   BANK4   BANK5   BANK6   BANK7   BANK8   BANK9  BANK10  BANK1
      +1  BANK12  BANK13  BANK14  BANK15  BANK16  BANK17  BANK18  BANK19  BANK20  BANK21  BANK22  BANK23  BANK24  BANK25
  5771 ;;      Params:         0       0       0       0       0       0       0       0       0       0       0       0       
      +0       0       0       0       0       0       0       0       0       0       0       0       0       0       0
  5772 ;;      Locals:         0       0       0       0       0       0       0       0       0       0       0       0       
      +0       0       0       0       0       0       0       0       0       0       0       0       0       0       0
  5773 ;;      Temps:          0       0       0       0       0       0       0       0       0       0       0       0       
      +0       0       0       0       0       0       0       0       0       0       0       0       0       0       0
  5774 ;;      Totals:         0       0       0       0       0       0       0       0       0       0       0       0       
      +0       0       0       0       0       0       0       0       0       0       0       0       0       0       0
  5775 ;;Total ram usage:        0 bytes
  5776 ;; Hardware stack levels used:    1
  5777 ;; Hardware stack levels required when called:    2
  5778 ;; This function calls:
  5779 ;;		Nothing
  5780 ;; This function is called by:
  5781 ;;		_InitApp
  5782 ;; This function uses a non-reentrant model
  5783 ;;
  5784                           
  5785                           
  5786                           ;psect for function _DioIni
  5787  0554                     _DioIni:	
  5788                           
  5789                           ;dio.c: 5: ANSA7 = 0;
  5790                           
  5791                           ;incstack = 0
  5792                           ; Regs used in _DioIni: []
  5793  0554  0023               	movlb	3	; select bank3
  5794  0555  138C               	bcf	12,7	;volatile
  5795                           
  5796                           ;dio.c: 6: ANSA5 = 0;
  5797  0556  128C               	bcf	12,5	;volatile
  5798                           
  5799                           ;dio.c: 7: TRISA7 = 1;
  5800  0557  0021               	movlb	1	; select bank1
  5801  0558  178C               	bsf	12,7	;volatile
  5802                           
  5803                           ;dio.c: 8: TRISA5 = 1;
  5804  0559  168C               	bsf	12,5	;volatile
  5805                           
  5806                           ;dio.c: 10: TRISA6 = 1;
  5807  055A  170C               	bsf	12,6	;volatile
  5808  055B  0008               	return
  5809  055C                     __end_of_DioIni:	
  5810                           
  5811                           	psect	text10
  5812  0512                     __ptext10:	
  5813 ;; *************** function _DACInit *****************
  5814 ;; Defined at:
  5815 ;;		line 36 in file "DAC.c"
  5816 ;; Parameters:    Size  Location     Type
  5817 ;;		None
  5818 ;; Auto vars:     Size  Location     Type
  5819 ;;		None
  5820 ;; Return value:  Size  Location     Type
  5821 ;;		None               void
  5822 ;; Registers used:
  5823 ;;		wreg, status,2
  5824 ;; Tracked objects:
  5825 ;;		On entry : 0/0
  5826 ;;		On exit  : 0/0
  5827 ;;		Unchanged: 0/0
  5828 ;; Data sizes:     COMMON   BANK0   BANK1   BANK2   BANK3   BANK4   BANK5   BANK6   BANK7   BANK8   BANK9  BANK10  BANK1
      +1  BANK12  BANK13  BANK14  BANK15  BANK16  BANK17  BANK18  BANK19  BANK20  BANK21  BANK22  BANK23  BANK24  BANK25
  5829 ;;      Params:         0       0       0       0       0       0       0       0       0       0       0       0       
      +0       0       0       0       0       0       0       0       0       0       0       0       0       0       0
  5830 ;;      Locals:         0       0       0       0       0       0       0       0       0       0       0       0       
      +0       0       0       0       0       0       0       0       0       0       0       0       0       0       0
  5831 ;;      Temps:          0       0       0       0       0       0       0       0       0       0       0       0       
      +0       0       0       0       0       0       0       0       0       0       0       0       0       0       0
  5832 ;;      Totals:         0       0       0       0       0       0       0       0       0       0       0       0       
      +0       0       0       0       0       0       0       0       0       0       0       0       0       0       0
  5833 ;;Total ram usage:        0 bytes
  5834 ;; Hardware stack levels used:    1
  5835 ;; Hardware stack levels required when called:    2
  5836 ;; This function calls:
  5837 ;;		Nothing
  5838 ;; This function is called by:
  5839 ;;		_InitApp
  5840 ;; This function uses a non-reentrant model
  5841 ;;
  5842                           
  5843                           
  5844                           ;psect for function _DACInit
  5845  0512                     _DACInit:	
  5846                           
  5847                           ;DAC.c: 37: TRISA2 = 0;
  5848                           
  5849                           ;incstack = 0
  5850                           ; Regs used in _DACInit: [wreg+status,2]
  5851  0512  0021               	movlb	1	; select bank1
  5852  0513  110C               	bcf	12,2	;volatile
  5853                           
  5854                           ;DAC.c: 38: ANSA2 = 0;
  5855  0514  0023               	movlb	3	; select bank3
  5856  0515  110C               	bcf	12,2	;volatile
  5857                           
  5858                           ;DAC.c: 40: DAC1NSS = 1;
  5859  0516  0022               	movlb	2	; select bank2
  5860  0517  1418               	bsf	24,0	;volatile
  5861                           
  5862                           ;DAC.c: 44: DAC1CON0 = DAC1CON0 & (0b11110011);
  5863  0518  0818               	movf	24,w	;volatile
  5864  0519  39F3               	andlw	243
  5865  051A  0098               	movwf	24	;volatile
  5866                           
  5867                           ;DAC.c: 46: DAC1OE1 = 1;
  5868  051B  1698               	bsf	24,5	;volatile
  5869                           
  5870                           ;DAC.c: 48: DAC1OE2 = 0;
  5871  051C  1218               	bcf	24,4	;volatile
  5872                           
  5873                           ;DAC.c: 50: DAC1EN = 1;
  5874  051D  1798               	bsf	24,7	;volatile
  5875  051E  0008               	return
  5876  051F                     __end_of_DACInit:	
  5877                           
  5878                           	psect	text11
  5879  051F                     __ptext11:	
  5880 ;; *************** function _UARTIni *****************
  5881 ;; Defined at:
  5882 ;;		line 116 in file "UART.c"
  5883 ;; Parameters:    Size  Location     Type
  5884 ;;		None
  5885 ;; Auto vars:     Size  Location     Type
  5886 ;;		None
  5887 ;; Return value:  Size  Location     Type
  5888 ;;		None               void
  5889 ;; Registers used:
  5890 ;;		wreg, status,2
  5891 ;; Tracked objects:
  5892 ;;		On entry : 0/0
  5893 ;;		On exit  : 0/0
  5894 ;;		Unchanged: 0/0
  5895 ;; Data sizes:     COMMON   BANK0   BANK1   BANK2   BANK3   BANK4   BANK5   BANK6   BANK7   BANK8   BANK9  BANK10  BANK1
      +1  BANK12  BANK13  BANK14  BANK15  BANK16  BANK17  BANK18  BANK19  BANK20  BANK21  BANK22  BANK23  BANK24  BANK25
  5896 ;;      Params:         0       0       0       0       0       0       0       0       0       0       0       0       
      +0       0       0       0       0       0       0       0       0       0       0       0       0       0       0
  5897 ;;      Locals:         0       0       0       0       0       0       0       0       0       0       0       0       
      +0       0       0       0       0       0       0       0       0       0       0       0       0       0       0
  5898 ;;      Temps:          0       0       0       0       0       0       0       0       0       0       0       0       
      +0       0       0       0       0       0       0       0       0       0       0       0       0       0       0
  5899 ;;      Totals:         0       0       0       0       0       0       0       0       0       0       0       0       
      +0       0       0       0       0       0       0       0       0       0       0       0       0       0       0
  5900 ;;Total ram usage:        0 bytes
  5901 ;; Hardware stack levels used:    1
  5902 ;; Hardware stack levels required when called:    2
  5903 ;; This function calls:
  5904 ;;		Nothing
  5905 ;; This function is called by:
  5906 ;;		_InitApp
  5907 ;; This function uses a non-reentrant model
  5908 ;;
  5909                           
  5910                           
  5911                           ;psect for function _UARTIni
  5912  051F                     _UARTIni:	
  5913                           
  5914                           ;UART.c: 118: TRISC6 = 1;
  5915                           
  5916                           ;incstack = 0
  5917                           ; Regs used in _UARTIni: [wreg+status,2]
  5918  051F  0021               	movlb	1	; select bank1
  5919  0520  170E               	bsf	14,6	;volatile
  5920                           
  5921                           ;UART.c: 120: TRISC7 = 1;
  5922  0521  178E               	bsf	14,7	;volatile
  5923                           
  5924                           ;UART.c: 124: SPBRGH = 0;
  5925  0522  0023               	movlb	3	; select bank3
  5926  0523  019C               	clrf	28	;volatile
  5927                           
  5928                           ;UART.c: 125: SPBRGL = 68;
  5929  0524  3044               	movlw	68
  5930  0525  009B               	movwf	27	;volatile
  5931                           
  5932                           ;UART.c: 127: BRGH = 1;
  5933  0526  151E               	bsf	30,2	;volatile
  5934                           
  5935                           ;UART.c: 130: BRG16 = 1;
  5936  0527  159F               	bsf	31,3	;volatile
  5937                           
  5938                           ;UART.c: 132: SYNC = 0;
  5939  0528  121E               	bcf	30,4	;volatile
  5940                           
  5941                           ;UART.c: 133: SPEN = 1;
  5942  0529  179D               	bsf	29,7	;volatile
  5943                           
  5944                           ;UART.c: 142: CREN = 1;
  5945  052A  161D               	bsf	29,4	;volatile
  5946  052B  0008               	return
  5947  052C                     __end_of_UARTIni:	
  5948                           
  5949                           	psect	text12
  5950  056D                     __ptext12:	
  5951 ;; *************** function _PWMIni *****************
  5952 ;; Defined at:
  5953 ;;		line 152 in file "PWM.c"
  5954 ;; Parameters:    Size  Location     Type
  5955 ;;		None
  5956 ;; Auto vars:     Size  Location     Type
  5957 ;;		None
  5958 ;; Return value:  Size  Location     Type
  5959 ;;		None               void
  5960 ;; Registers used:
  5961 ;;		wreg, status,2, status,0, pclath, cstack
  5962 ;; Tracked objects:
  5963 ;;		On entry : 0/0
  5964 ;;		On exit  : 0/0
  5965 ;;		Unchanged: 0/0
  5966 ;; Data sizes:     COMMON   BANK0   BANK1   BANK2   BANK3   BANK4   BANK5   BANK6   BANK7   BANK8   BANK9  BANK10  BANK1
      +1  BANK12  BANK13  BANK14  BANK15  BANK16  BANK17  BANK18  BANK19  BANK20  BANK21  BANK22  BANK23  BANK24  BANK25
  5967 ;;      Params:         0       0       0       0       0       0       0       0       0       0       0       0       
      +0       0       0       0       0       0       0       0       0       0       0       0       0       0       0
  5968 ;;      Locals:         0       0       0       0       0       0       0       0       0       0       0       0       
      +0       0       0       0       0       0       0       0       0       0       0       0       0       0       0
  5969 ;;      Temps:          0       0       0       0       0       0       0       0       0       0       0       0       
      +0       0       0       0       0       0       0       0       0       0       0       0       0       0       0
  5970 ;;      Totals:         0       0       0       0       0       0       0       0       0       0       0       0       
      +0       0       0       0       0       0       0       0       0       0       0       0       0       0       0
  5971 ;;Total ram usage:        0 bytes
  5972 ;; Hardware stack levels used:    1
  5973 ;; Hardware stack levels required when called:    4
  5974 ;; This function calls:
  5975 ;;		_PWMSetConfig
  5976 ;; This function is called by:
  5977 ;;		_InitApp
  5978 ;; This function uses a non-reentrant model
  5979 ;;
  5980                           
  5981                           
  5982                           ;psect for function _PWMIni
  5983  056D                     _PWMIni:	
  5984                           
  5985                           ;PWM.c: 153: PWMSetConfig();
  5986                           
  5987                           ;incstack = 0
  5988                           ; Regs used in _PWMIni: [wreg+status,2+status,0+pclath+cstack]
  5989  056D  3184  2430         	fcall	_PWMSetConfig
  5990  056F  0008               	return
  5991  0570                     __end_of_PWMIni:	
  5992                           
  5993                           	psect	text13
  5994  0430                     __ptext13:	
  5995 ;; *************** function _PWMSetConfig *****************
  5996 ;; Defined at:
  5997 ;;		line 37 in file "PWM.c"
  5998 ;; Parameters:    Size  Location     Type
  5999 ;;		None
  6000 ;; Auto vars:     Size  Location     Type
  6001 ;;		None
  6002 ;; Return value:  Size  Location     Type
  6003 ;;		None               void
  6004 ;; Registers used:
  6005 ;;		wreg, status,2, status,0, pclath, cstack
  6006 ;; Tracked objects:
  6007 ;;		On entry : 0/0
  6008 ;;		On exit  : 0/0
  6009 ;;		Unchanged: 0/0
  6010 ;; Data sizes:     COMMON   BANK0   BANK1   BANK2   BANK3   BANK4   BANK5   BANK6   BANK7   BANK8   BANK9  BANK10  BANK1
      +1  BANK12  BANK13  BANK14  BANK15  BANK16  BANK17  BANK18  BANK19  BANK20  BANK21  BANK22  BANK23  BANK24  BANK25
  6011 ;;      Params:         0       0       0       0       0       0       0       0       0       0       0       0       
      +0       0       0       0       0       0       0       0       0       0       0       0       0       0       0
  6012 ;;      Locals:         0       0       0       0       0       0       0       0       0       0       0       0       
      +0       0       0       0       0       0       0       0       0       0       0       0       0       0       0
  6013 ;;      Temps:          0       0       0       0       0       0       0       0       0       0       0       0       
      +0       0       0       0       0       0       0       0       0       0       0       0       0       0       0
  6014 ;;      Totals:         0       0       0       0       0       0       0       0       0       0       0       0       
      +0       0       0       0       0       0       0       0       0       0       0       0       0       0       0
  6015 ;;Total ram usage:        0 bytes
  6016 ;; Hardware stack levels used:    1
  6017 ;; Hardware stack levels required when called:    3
  6018 ;; This function calls:
  6019 ;;		_PWMSetDutyCycle
  6020 ;;		_PWMSetPeriod
  6021 ;;		_PWMSetPhase
  6022 ;; This function is called by:
  6023 ;;		_PWMIni
  6024 ;; This function uses a non-reentrant model
  6025 ;;
  6026                           
  6027                           
  6028                           ;psect for function _PWMSetConfig
  6029  0430                     _PWMSetConfig:	
  6030                           
  6031                           ;PWM.c: 53: ANSELC = ANSELC & 0b00000000;
  6032                           
  6033                           ;incstack = 0
  6034                           ; Regs used in _PWMSetConfig: [wreg+status,2+status,0+pclath+cstack]
  6035  0430  0023               	movlb	3	; select bank3
  6036  0431  018E               	clrf	14	;volatile
  6037                           
  6038                           ;PWM.c: 54: PWMSetDutyCycle(32000);
  6039  0432  3000               	movlw	0
  6040  0433  0020               	movlb	0	; select bank0
  6041  0434  00A7               	movwf	?_PWMSetDutyCycle
  6042  0435  307D               	movlw	125
  6043  0436  00A8               	movwf	?_PWMSetDutyCycle+1
  6044  0437  3185  2538  3184   	fcall	_PWMSetDutyCycle
  6045                           
  6046                           ;PWM.c: 55: PWMSetPeriod(64000);
  6047  043A  3000               	movlw	0
  6048  043B  0020               	movlb	0	; select bank0
  6049  043C  00A7               	movwf	?_PWMSetPeriod
  6050  043D  30FA               	movlw	250
  6051  043E  00A8               	movwf	?_PWMSetPeriod+1
  6052  043F  3185  254B  3184   	fcall	_PWMSetPeriod
  6053                           
  6054                           ;PWM.c: 56: PWMSetPhase(0);
  6055  0442  3000               	movlw	0
  6056  0443  0020               	movlb	0	; select bank0
  6057  0444  00A7               	movwf	?_PWMSetPhase
  6058  0445  3000               	movlw	0
  6059  0446  00A8               	movwf	?_PWMSetPhase+1
  6060  0447  3185  2542         	fcall	_PWMSetPhase
  6061                           
  6062                           ;PWM.c: 78: PSMC1CLK = 0x01;
  6063  0449  3001               	movlw	1
  6064  044A  003D               	movlb	29	; select bank29
  6065  044B  0094               	movwf	20	;volatile
  6066                           
  6067                           ;PWM.c: 82: PSMC1INT = 0x10;
  6068  044C  3010               	movlw	16
  6069  044D  00A0               	movwf	32	;volatile
  6070                           
  6071                           ;PWM.c: 86: PSMC1OEN = 0x03;
  6072  044E  3003               	movlw	3
  6073  044F  0095               	movwf	21	;volatile
  6074                           
  6075                           ;PWM.c: 87: PSMC1STR0 = 0x03;
  6076  0450  3003               	movlw	3
  6077  0451  00AE               	movwf	46	;volatile
  6078                           
  6079                           ;PWM.c: 88: PSMC1POL = 0x00;
  6080  0452  0196               	clrf	22	;volatile
  6081                           
  6082                           ;PWM.c: 96: PSMC1PRSbits.P1PRST = 1;
  6083  0453  141C               	bsf	28,0	;volatile
  6084                           
  6085                           ;PWM.c: 97: PSMC1PHSbits.P1PHST = 1;
  6086  0454  141A               	bsf	26,0	;volatile
  6087                           
  6088                           ;PWM.c: 98: PSMC1DCSbits.P1DCST = 1;
  6089  0455  141B               	bsf	27,0	;volatile
  6090                           
  6091                           ;PWM.c: 101: PSMC1DBR = 0;
  6092  0456  01A9               	clrf	41	;volatile
  6093                           
  6094                           ;PWM.c: 102: PSMC1DBF = 0;
  6095  0457  01AA               	clrf	42	;volatile
  6096                           
  6097                           ;PWM.c: 106: PSMC1CON = 0b11110001;
  6098  0458  30F1               	movlw	241
  6099  0459  0091               	movwf	17	;volatile
  6100                           
  6101                           ;PWM.c: 114: TRISC0 = 0;
  6102  045A  0021               	movlb	1	; select bank1
  6103  045B  100E               	bcf	14,0	;volatile
  6104                           
  6105                           ;PWM.c: 115: TRISC1 = 0;
  6106  045C  108E               	bcf	14,1	;volatile
  6107  045D  0008               	return
  6108  045E                     __end_of_PWMSetConfig:	
  6109                           
  6110                           	psect	text14
  6111  0542                     __ptext14:	
  6112 ;; *************** function _PWMSetPhase *****************
  6113 ;; Defined at:
  6114 ;;		line 121 in file "PWM.c"
  6115 ;; Parameters:    Size  Location     Type
  6116 ;;  cntPhase        2    7[BANK0 ] unsigned int 
  6117 ;; Auto vars:     Size  Location     Type
  6118 ;;		None
  6119 ;; Return value:  Size  Location     Type
  6120 ;;		None               void
  6121 ;; Registers used:
  6122 ;;		wreg, status,2
  6123 ;; Tracked objects:
  6124 ;;		On entry : 0/0
  6125 ;;		On exit  : 0/0
  6126 ;;		Unchanged: 0/0
  6127 ;; Data sizes:     COMMON   BANK0   BANK1   BANK2   BANK3   BANK4   BANK5   BANK6   BANK7   BANK8   BANK9  BANK10  BANK1
      +1  BANK12  BANK13  BANK14  BANK15  BANK16  BANK17  BANK18  BANK19  BANK20  BANK21  BANK22  BANK23  BANK24  BANK25
  6128 ;;      Params:         0       2       0       0       0       0       0       0       0       0       0       0       
      +0       0       0       0       0       0       0       0       0       0       0       0       0       0       0
  6129 ;;      Locals:         0       0       0       0       0       0       0       0       0       0       0       0       
      +0       0       0       0       0       0       0       0       0       0       0       0       0       0       0
  6130 ;;      Temps:          0       0       0       0       0       0       0       0       0       0       0       0       
      +0       0       0       0       0       0       0       0       0       0       0       0       0       0       0
  6131 ;;      Totals:         0       2       0       0       0       0       0       0       0       0       0       0       
      +0       0       0       0       0       0       0       0       0       0       0       0       0       0       0
  6132 ;;Total ram usage:        2 bytes
  6133 ;; Hardware stack levels used:    1
  6134 ;; Hardware stack levels required when called:    2
  6135 ;; This function calls:
  6136 ;;		Nothing
  6137 ;; This function is called by:
  6138 ;;		_PWMSetConfig
  6139 ;; This function uses a non-reentrant model
  6140 ;;
  6141                           
  6142                           
  6143                           ;psect for function _PWMSetPhase
  6144  0542                     _PWMSetPhase:	
  6145                           
  6146                           ;PWM.c: 122: PSMC1PHL = cntPhase & 0x00FF;
  6147                           
  6148                           ;incstack = 0
  6149                           ; Regs used in _PWMSetPhase: [wreg+status,2]
  6150  0542  0020               	movlb	0	; select bank0
  6151  0543  0827               	movf	PWMSetPhase@cntPhase,w
  6152  0544  003D               	movlb	29	; select bank29
  6153  0545  00A1               	movwf	33	;volatile
  6154                           
  6155                           ;PWM.c: 123: PSMC1PHH = cntPhase>>8;
  6156  0546  0020               	movlb	0	; select bank0
  6157  0547  0828               	movf	PWMSetPhase@cntPhase+1,w
  6158  0548  003D               	movlb	29	; select bank29
  6159  0549  00A2               	movwf	34	;volatile
  6160  054A  0008               	return
  6161  054B                     __end_of_PWMSetPhase:	
  6162                           
  6163                           	psect	text15
  6164  054B                     __ptext15:	
  6165 ;; *************** function _PWMSetPeriod *****************
  6166 ;; Defined at:
  6167 ;;		line 130 in file "PWM.c"
  6168 ;; Parameters:    Size  Location     Type
  6169 ;;  cntPeriod       2    7[BANK0 ] unsigned int 
  6170 ;; Auto vars:     Size  Location     Type
  6171 ;;		None
  6172 ;; Return value:  Size  Location     Type
  6173 ;;		None               void
  6174 ;; Registers used:
  6175 ;;		wreg, status,2
  6176 ;; Tracked objects:
  6177 ;;		On entry : 0/0
  6178 ;;		On exit  : 0/0
  6179 ;;		Unchanged: 0/0
  6180 ;; Data sizes:     COMMON   BANK0   BANK1   BANK2   BANK3   BANK4   BANK5   BANK6   BANK7   BANK8   BANK9  BANK10  BANK1
      +1  BANK12  BANK13  BANK14  BANK15  BANK16  BANK17  BANK18  BANK19  BANK20  BANK21  BANK22  BANK23  BANK24  BANK25
  6181 ;;      Params:         0       2       0       0       0       0       0       0       0       0       0       0       
      +0       0       0       0       0       0       0       0       0       0       0       0       0       0       0
  6182 ;;      Locals:         0       0       0       0       0       0       0       0       0       0       0       0       
      +0       0       0       0       0       0       0       0       0       0       0       0       0       0       0
  6183 ;;      Temps:          0       0       0       0       0       0       0       0       0       0       0       0       
      +0       0       0       0       0       0       0       0       0       0       0       0       0       0       0
  6184 ;;      Totals:         0       2       0       0       0       0       0       0       0       0       0       0       
      +0       0       0       0       0       0       0       0       0       0       0       0       0       0       0
  6185 ;;Total ram usage:        2 bytes
  6186 ;; Hardware stack levels used:    1
  6187 ;; Hardware stack levels required when called:    2
  6188 ;; This function calls:
  6189 ;;		Nothing
  6190 ;; This function is called by:
  6191 ;;		_PWMSetConfig
  6192 ;; This function uses a non-reentrant model
  6193 ;;
  6194                           
  6195                           
  6196                           ;psect for function _PWMSetPeriod
  6197  054B                     _PWMSetPeriod:	
  6198                           
  6199                           ;PWM.c: 132: PSMC1PRL = cntPeriod & 0x00FF;
  6200                           
  6201                           ;incstack = 0
  6202                           ; Regs used in _PWMSetPeriod: [wreg+status,2]
  6203  054B  0020               	movlb	0	; select bank0
  6204  054C  0827               	movf	PWMSetPeriod@cntPeriod,w
  6205  054D  003D               	movlb	29	; select bank29
  6206  054E  00A5               	movwf	37	;volatile
  6207                           
  6208                           ;PWM.c: 133: PSMC1PRH = cntPeriod>>8;
  6209  054F  0020               	movlb	0	; select bank0
  6210  0550  0828               	movf	PWMSetPeriod@cntPeriod+1,w
  6211  0551  003D               	movlb	29	; select bank29
  6212  0552  00A6               	movwf	38	;volatile
  6213  0553  0008               	return
  6214  0554                     __end_of_PWMSetPeriod:	
  6215                           
  6216                           	psect	text16
  6217  0538                     __ptext16:	
  6218 ;; *************** function _PWMSetDutyCycle *****************
  6219 ;; Defined at:
  6220 ;;		line 141 in file "PWM.c"
  6221 ;; Parameters:    Size  Location     Type
  6222 ;;  cntDutyCycle    2    7[BANK0 ] unsigned int 
  6223 ;; Auto vars:     Size  Location     Type
  6224 ;;		None
  6225 ;; Return value:  Size  Location     Type
  6226 ;;		None               void
  6227 ;; Registers used:
  6228 ;;		wreg, status,2
  6229 ;; Tracked objects:
  6230 ;;		On entry : 0/0
  6231 ;;		On exit  : 0/0
  6232 ;;		Unchanged: 0/0
  6233 ;; Data sizes:     COMMON   BANK0   BANK1   BANK2   BANK3   BANK4   BANK5   BANK6   BANK7   BANK8   BANK9  BANK10  BANK1
      +1  BANK12  BANK13  BANK14  BANK15  BANK16  BANK17  BANK18  BANK19  BANK20  BANK21  BANK22  BANK23  BANK24  BANK25
  6234 ;;      Params:         0       2       0       0       0       0       0       0       0       0       0       0       
      +0       0       0       0       0       0       0       0       0       0       0       0       0       0       0
  6235 ;;      Locals:         0       0       0       0       0       0       0       0       0       0       0       0       
      +0       0       0       0       0       0       0       0       0       0       0       0       0       0       0
  6236 ;;      Temps:          0       0       0       0       0       0       0       0       0       0       0       0       
      +0       0       0       0       0       0       0       0       0       0       0       0       0       0       0
  6237 ;;      Totals:         0       2       0       0       0       0       0       0       0       0       0       0       
      +0       0       0       0       0       0       0       0       0       0       0       0       0       0       0
  6238 ;;Total ram usage:        2 bytes
  6239 ;; Hardware stack levels used:    1
  6240 ;; Hardware stack levels required when called:    2
  6241 ;; This function calls:
  6242 ;;		Nothing
  6243 ;; This function is called by:
  6244 ;;		_PWMSetConfig
  6245 ;; This function uses a non-reentrant model
  6246 ;;
  6247                           
  6248                           
  6249                           ;psect for function _PWMSetDutyCycle
  6250  0538                     _PWMSetDutyCycle:	
  6251                           
  6252                           ;PWM.c: 144: PSMC1DCL = cntDutyCycle & 0x00FF;
  6253                           
  6254                           ;incstack = 0
  6255                           ; Regs used in _PWMSetDutyCycle: [wreg+status,2]
  6256  0538  0020               	movlb	0	; select bank0
  6257  0539  0827               	movf	PWMSetDutyCycle@cntDutyCycle,w
  6258  053A  003D               	movlb	29	; select bank29
  6259  053B  00A3               	movwf	35	;volatile
  6260                           
  6261                           ;PWM.c: 145: PSMC1DCH = cntDutyCycle>>8;
  6262  053C  0020               	movlb	0	; select bank0
  6263  053D  0828               	movf	PWMSetDutyCycle@cntDutyCycle+1,w
  6264  053E  003D               	movlb	29	; select bank29
  6265  053F  00A4               	movwf	36	;volatile
  6266                           
  6267                           ;PWM.c: 147: PSMC1LD = 1;
  6268  0540  1711               	bsf	17,6	;volatile
  6269  0541  0008               	return
  6270  0542                     __end_of_PWMSetDutyCycle:	
  6271                           
  6272                           	psect	text17
  6273  0363                     __ptext17:	
  6274 ;; *************** function _ADCIni *****************
  6275 ;; Defined at:
  6276 ;;		line 140 in file "ADC.c"
  6277 ;; Parameters:    Size  Location     Type
  6278 ;;  ANx             1    wreg     unsigned char 
  6279 ;;  Fosc            1    7[BANK0 ] unsigned char 
  6280 ;; Auto vars:     Size  Location     Type
  6281 ;;  ANx             1    9[BANK0 ] unsigned char 
  6282 ;; Return value:  Size  Location     Type
  6283 ;;		None               void
  6284 ;; Registers used:
  6285 ;;		wreg, status,2, status,0
  6286 ;; Tracked objects:
  6287 ;;		On entry : 0/0
  6288 ;;		On exit  : 0/0
  6289 ;;		Unchanged: 0/0
  6290 ;; Data sizes:     COMMON   BANK0   BANK1   BANK2   BANK3   BANK4   BANK5   BANK6   BANK7   BANK8   BANK9  BANK10  BANK1
      +1  BANK12  BANK13  BANK14  BANK15  BANK16  BANK17  BANK18  BANK19  BANK20  BANK21  BANK22  BANK23  BANK24  BANK25
  6291 ;;      Params:         0       1       0       0       0       0       0       0       0       0       0       0       
      +0       0       0       0       0       0       0       0       0       0       0       0       0       0       0
  6292 ;;      Locals:         0       1       0       0       0       0       0       0       0       0       0       0       
      +0       0       0       0       0       0       0       0       0       0       0       0       0       0       0
  6293 ;;      Temps:          0       1       0       0       0       0       0       0       0       0       0       0       
      +0       0       0       0       0       0       0       0       0       0       0       0       0       0       0
  6294 ;;      Totals:         0       3       0       0       0       0       0       0       0       0       0       0       
      +0       0       0       0       0       0       0       0       0       0       0       0       0       0       0
  6295 ;;Total ram usage:        3 bytes
  6296 ;; Hardware stack levels used:    1
  6297 ;; Hardware stack levels required when called:    2
  6298 ;; This function calls:
  6299 ;;		Nothing
  6300 ;; This function is called by:
  6301 ;;		_InitApp
  6302 ;; This function uses a non-reentrant model
  6303 ;;
  6304                           
  6305                           
  6306                           ;psect for function _ADCIni
  6307  0363                     _ADCIni:	
  6308                           
  6309                           ;incstack = 0
  6310                           ; Regs used in _ADCIni: [wreg+status,2+status,0]
  6311                           ;ADCIni@ANx stored from wreg
  6312  0363  0020               	movlb	0	; select bank0
  6313  0364  00A9               	movwf	ADCIni@ANx
  6314                           
  6315                           ;ADC.c: 141: TRISA = TRISA | (0b00000001<<ANx);
  6316  0365  3001               	movlw	1
  6317  0366  00A8               	movwf	??_ADCIni
  6318  0367  0A29               	incf	ADCIni@ANx,w
  6319  0368  2B6A               	goto	u994
  6320  0369                     u995:	
  6321  0369  35A8               	lslf	??_ADCIni,f
  6322  036A                     u994:	
  6323  036A  0B89               	decfsz	9,f
  6324  036B  2B69               	goto	u995
  6325  036C  0828               	movf	??_ADCIni,w
  6326  036D  0021               	movlb	1	; select bank1
  6327  036E  040C               	iorwf	12,w	;volatile
  6328  036F  008C               	movwf	12	;volatile
  6329                           
  6330                           ;ADC.c: 142: ANSELA = ANSELA | (0b00000001<<ANx);
  6331  0370  3001               	movlw	1
  6332  0371  0020               	movlb	0	; select bank0
  6333  0372  00A8               	movwf	??_ADCIni
  6334  0373  0A29               	incf	ADCIni@ANx,w
  6335  0374  2B76               	goto	u1004
  6336  0375                     u1005:	
  6337  0375  35A8               	lslf	??_ADCIni,f
  6338  0376                     u1004:	
  6339  0376  0B89               	decfsz	9,f
  6340  0377  2B75               	goto	u1005
  6341  0378  0828               	movf	??_ADCIni,w
  6342  0379  0023               	movlb	3	; select bank3
  6343  037A  040C               	iorwf	12,w	;volatile
  6344  037B  008C               	movwf	12	;volatile
  6345                           
  6346                           ;ADC.c: 143: ADCON1 = 0b11110000;
  6347  037C  30F0               	movlw	240
  6348  037D  0021               	movlb	1	; select bank1
  6349  037E  009E               	movwf	30	;volatile
  6350                           
  6351                           ;ADC.c: 158: ADCON2 = 0b00001111;
  6352  037F  300F               	movlw	15
  6353  0380  009F               	movwf	31	;volatile
  6354                           
  6355                           ;ADC.c: 164: ADCON0 = (ANx<<2) & 0b01111100;
  6356  0381  0020               	movlb	0	; select bank0
  6357  0382  0829               	movf	ADCIni@ANx,w
  6358  0383  00A8               	movwf	??_ADCIni
  6359  0384  3001               	movlw	1
  6360  0385                     u1015:	
  6361  0385  35A8               	lslf	??_ADCIni,f
  6362  0386  3EFF               	addlw	-1
  6363  0387  1D03               	skipz
  6364  0388  2B85               	goto	u1015
  6365  0389  3528               	lslf	??_ADCIni,w
  6366  038A  397C               	andlw	124
  6367  038B  0021               	movlb	1	; select bank1
  6368  038C  009D               	movwf	29	;volatile
  6369                           
  6370                           ;ADC.c: 172: ADON = 1;
  6371  038D  141D               	bsf	29,0	;volatile
  6372                           
  6373                           ;ADC.c: 173: _delay(100);
  6374  038E  3021               	movlw	33
  6375  038F  0020               	movlb	0	; select bank0
  6376  0390  00A8               	movwf	??_ADCIni
  6377  0391                     u2227:	
  6378  0391  0BA8               	decfsz	??_ADCIni,f
  6379  0392  2B91               	goto	u2227
  6380                           
  6381                           ;ADC.c: 174: GO = 1;
  6382  0393  0021               	movlb	1	; select bank1
  6383  0394  149D               	bsf	29,1	;volatile
  6384                           
  6385                           ;ADC.c: 176: ADCON0Tmp = ADCON0;
  6386  0395  081D               	movf	29,w	;volatile
  6387  0396  0020               	movlb	0	; select bank0
  6388  0397  00A8               	movwf	??_ADCIni
  6389  0398  0828               	movf	??_ADCIni,w
  6390  0399  00DC               	movwf	_ADCON0Tmp
  6391  039A  0008               	return
  6392  039B                     __end_of_ADCIni:	
  6393                           
  6394                           	psect	text18
  6395  0569                     __ptext18:	
  6396 ;; *************** function _ConfigureOscillator *****************
  6397 ;; Defined at:
  6398 ;;		line 21 in file "system.c"
  6399 ;; Parameters:    Size  Location     Type
  6400 ;;		None
  6401 ;; Auto vars:     Size  Location     Type
  6402 ;;		None
  6403 ;; Return value:  Size  Location     Type
  6404 ;;		None               void
  6405 ;; Registers used:
  6406 ;;		wreg
  6407 ;; Tracked objects:
  6408 ;;		On entry : 0/0
  6409 ;;		On exit  : 0/0
  6410 ;;		Unchanged: 0/0
  6411 ;; Data sizes:     COMMON   BANK0   BANK1   BANK2   BANK3   BANK4   BANK5   BANK6   BANK7   BANK8   BANK9  BANK10  BANK1
      +1  BANK12  BANK13  BANK14  BANK15  BANK16  BANK17  BANK18  BANK19  BANK20  BANK21  BANK22  BANK23  BANK24  BANK25
  6412 ;;      Params:         0       0       0       0       0       0       0       0       0       0       0       0       
      +0       0       0       0       0       0       0       0       0       0       0       0       0       0       0
  6413 ;;      Locals:         0       0       0       0       0       0       0       0       0       0       0       0       
      +0       0       0       0       0       0       0       0       0       0       0       0       0       0       0
  6414 ;;      Temps:          0       0       0       0       0       0       0       0       0       0       0       0       
      +0       0       0       0       0       0       0       0       0       0       0       0       0       0       0
  6415 ;;      Totals:         0       0       0       0       0       0       0       0       0       0       0       0       
      +0       0       0       0       0       0       0       0       0       0       0       0       0       0       0
  6416 ;;Total ram usage:        0 bytes
  6417 ;; Hardware stack levels used:    1
  6418 ;; Hardware stack levels required when called:    2
  6419 ;; This function calls:
  6420 ;;		Nothing
  6421 ;; This function is called by:
  6422 ;;		_main
  6423 ;; This function uses a non-reentrant model
  6424 ;;
  6425                           
  6426                           
  6427                           ;psect for function _ConfigureOscillator
  6428  0569                     _ConfigureOscillator:	
  6429                           
  6430                           ;system.c: 23: OSCCON= 0b11111100;
  6431                           
  6432                           ;incstack = 0
  6433                           ; Regs used in _ConfigureOscillator: [wreg]
  6434  0569  30FC               	movlw	252
  6435  056A  0021               	movlb	1	; select bank1
  6436  056B  0099               	movwf	25	;volatile
  6437  056C  0008               	return
  6438  056D                     __end_of_ConfigureOscillator:	
  6439                           
  6440                           	psect	text19
  6441  0314                     __ptext19:	
  6442 ;; *************** function _UARTSend *****************
  6443 ;; Defined at:
  6444 ;;		line 167 in file "UART.c"
  6445 ;; Parameters:    Size  Location     Type
  6446 ;;  pData           1    wreg     PTR unsigned char 
  6447 ;;		 -> chBufADC(20), 
  6448 ;;  stLen           1    7[BANK0 ] unsigned char 
  6449 ;; Auto vars:     Size  Location     Type
  6450 ;;  pData           1   10[BANK0 ] PTR unsigned char 
  6451 ;;		 -> chBufADC(20), 
  6452 ;;  i               2   11[BANK0 ] int 
  6453 ;; Return value:  Size  Location     Type
  6454 ;;                  1    wreg      unsigned char 
  6455 ;; Registers used:
  6456 ;;		wreg, fsr1l, fsr1h, status,2, status,0
  6457 ;; Tracked objects:
  6458 ;;		On entry : 0/0
  6459 ;;		On exit  : 0/0
  6460 ;;		Unchanged: 0/0
  6461 ;; Data sizes:     COMMON   BANK0   BANK1   BANK2   BANK3   BANK4   BANK5   BANK6   BANK7   BANK8   BANK9  BANK10  BANK1
      +1  BANK12  BANK13  BANK14  BANK15  BANK16  BANK17  BANK18  BANK19  BANK20  BANK21  BANK22  BANK23  BANK24  BANK25
  6462 ;;      Params:         0       1       0       0       0       0       0       0       0       0       0       0       
      +0       0       0       0       0       0       0       0       0       0       0       0       0       0       0
  6463 ;;      Locals:         0       3       0       0       0       0       0       0       0       0       0       0       
      +0       0       0       0       0       0       0       0       0       0       0       0       0       0       0
  6464 ;;      Temps:          0       2       0       0       0       0       0       0       0       0       0       0       
      +0       0       0       0       0       0       0       0       0       0       0       0       0       0       0
  6465 ;;      Totals:         0       6       0       0       0       0       0       0       0       0       0       0       
      +0       0       0       0       0       0       0       0       0       0       0       0       0       0       0
  6466 ;;Total ram usage:        6 bytes
  6467 ;; Hardware stack levels used:    1
  6468 ;; Hardware stack levels required when called:    2
  6469 ;; This function calls:
  6470 ;;		Nothing
  6471 ;; This function is called by:
  6472 ;;		_main
  6473 ;; This function uses a non-reentrant model
  6474 ;;
  6475                           
  6476                           
  6477                           ;psect for function _UARTSend
  6478  0314                     _UARTSend:	
  6479                           
  6480                           ;incstack = 0
  6481                           ; Regs used in _UARTSend: [wreg+fsr1l+fsr1h+status,2+status,0]
  6482                           ;UARTSend@pData stored from wreg
  6483  0314  0020               	movlb	0	; select bank0
  6484  0315  00AA               	movwf	UARTSend@pData
  6485                           
  6486                           ;UART.c: 168: if (UART_cntTxUART ==0)
  6487  0316  08DF               	movf	_UART_cntTxUART,f	;volatile
  6488  0317  1D03               	skipz
  6489  0318  0008               	return
  6490                           
  6491                           ;UART.c: 169: {
  6492                           ;UART.c: 170: if (stLen == 0)
  6493  0319  08A7               	movf	UARTSend@stLen,f
  6494  031A  1903               	btfsc	3,2
  6495  031B  2B2F               	goto	l1933
  6496  031C  2B39               	goto	l1935
  6497  031D                     l1929:	
  6498                           ;UART.c: 171: {
  6499                           ;UART.c: 172: while (*(pData + UART_cntTxUART) != '\0')
  6500                           
  6501                           
  6502                           ;UART.c: 173: {
  6503                           ;UART.c: 174: UART_chTxBuf[UART_cntTxUART]=pData[UART_cntTxUART];
  6504  031D  085F               	movf	_UART_cntTxUART,w
  6505  031E  072A               	addwf	UARTSend@pData,w
  6506  031F  00A8               	movwf	??_UARTSend
  6507  0320  0828               	movf	??_UARTSend,w
  6508  0321  0086               	movwf	6
  6509  0322  0187               	clrf	7
  6510  0323  0801               	movf	1,w
  6511  0324  00A9               	movwf	??_UARTSend+1
  6512  0325  085F               	movf	_UART_cntTxUART,w
  6513  0326  3EB4               	addlw	_UART_chTxBuf& (0+255)
  6514  0327  0086               	movwf	6
  6515  0328  0187               	clrf	7
  6516  0329  0829               	movf	??_UARTSend+1,w
  6517  032A  0081               	movwf	1
  6518                           
  6519                           ;UART.c: 175: UART_cntTxUART++;
  6520  032B  3001               	movlw	1
  6521  032C  00A8               	movwf	??_UARTSend
  6522  032D  0828               	movf	??_UARTSend,w
  6523  032E  07DF               	addwf	_UART_cntTxUART,f	;volatile
  6524  032F                     l1933:	
  6525  032F  085F               	movf	_UART_cntTxUART,w
  6526  0330  072A               	addwf	UARTSend@pData,w
  6527  0331  00A8               	movwf	??_UARTSend
  6528  0332  0828               	movf	??_UARTSend,w
  6529  0333  0086               	movwf	6
  6530  0334  0187               	clrf	7
  6531  0335  0881               	movf	1,f
  6532  0336  1903               	btfsc	3,2
  6533  0337  2B5E               	goto	l186
  6534  0338  2B1D               	goto	l1929
  6535  0339                     l1935:	
  6536                           ;UART.c: 176: }
  6537                           ;UART.c: 179: }
  6538                           
  6539                           
  6540                           ;UART.c: 180: else
  6541                           ;UART.c: 181: {
  6542                           ;UART.c: 182: for(int i=0; i<stLen;i++)
  6543  0339  01AB               	clrf	UARTSend@i
  6544  033A  01AC               	clrf	UARTSend@i+1
  6545  033B                     l1943:	
  6546  033B  082C               	movf	UARTSend@i+1,w
  6547  033C  3A80               	xorlw	128
  6548  033D  00A8               	movwf	??_UARTSend
  6549  033E  3080               	movlw	128
  6550  033F  0228               	subwf	??_UARTSend,w
  6551  0340  1D03               	skipz
  6552  0341  2B44               	goto	u1135
  6553  0342  0827               	movf	UARTSend@stLen,w
  6554  0343  022B               	subwf	UARTSend@i,w
  6555  0344                     u1135:	
  6556  0344  1803               	btfsc	3,0
  6557  0345  2B5E               	goto	l186
  6558                           
  6559                           ;UART.c: 183: {
  6560                           ;UART.c: 184: UART_chTxBuf[i] = pData[i];
  6561  0346  0020               	movlb	0	; select bank0
  6562  0347  082B               	movf	UARTSend@i,w
  6563  0348  072A               	addwf	UARTSend@pData,w
  6564  0349  00A8               	movwf	??_UARTSend
  6565  034A  0828               	movf	??_UARTSend,w
  6566  034B  0086               	movwf	6
  6567  034C  0187               	clrf	7
  6568  034D  0801               	movf	1,w
  6569  034E  00A9               	movwf	??_UARTSend+1
  6570  034F  082B               	movf	UARTSend@i,w
  6571  0350  3EB4               	addlw	_UART_chTxBuf& (0+255)
  6572  0351  0086               	movwf	6
  6573  0352  0187               	clrf	7
  6574  0353  0829               	movf	??_UARTSend+1,w
  6575  0354  0081               	movwf	1
  6576                           
  6577                           ;UART.c: 185: UART_cntTxUART++;
  6578  0355  3001               	movlw	1
  6579  0356  00A8               	movwf	??_UARTSend
  6580  0357  0828               	movf	??_UARTSend,w
  6581  0358  07DF               	addwf	_UART_cntTxUART,f	;volatile
  6582  0359  3001               	movlw	1
  6583  035A  07AB               	addwf	UARTSend@i,f
  6584  035B  3000               	movlw	0
  6585  035C  3DAC               	addwfc	UARTSend@i+1,f
  6586  035D  2B3B               	goto	l1943
  6587  035E                     l186:	
  6588                           
  6589                           ;UART.c: 186: }
  6590                           ;UART.c: 187: }
  6591                           ;UART.c: 190: TXIE = 1;
  6592  035E  0021               	movlb	1	; select bank1
  6593  035F  1611               	bsf	17,4	;volatile
  6594                           
  6595                           ;UART.c: 193: TXEN = 1;
  6596  0360  0023               	movlb	3	; select bank3
  6597  0361  169E               	bsf	30,5	;volatile
  6598                           
  6599                           ;UART.c: 197: else
  6600                           ;UART.c: 198: {
  6601                           ;UART.c: 199: return 0;
  6602                           ;	Return value of _UARTSend is never used
  6603                           
  6604                           ;UART.c: 196: }
  6605                           
  6606                           ;UART.c: 195: return 1;
  6607                           ;	Return value of _UARTSend is never used
  6608  0362  0008               	return
  6609  0363                     __end_of_UARTSend:	
  6610                           
  6611                           	psect	text20
  6612  048A                     __ptext20:	
  6613 ;; *************** function _ReadADC *****************
  6614 ;; Defined at:
  6615 ;;		line 180 in file "ADC.c"
  6616 ;; Parameters:    Size  Location     Type
  6617 ;;  ANx             1    wreg     unsigned char 
  6618 ;; Auto vars:     Size  Location     Type
  6619 ;;  ANx             1    0[COMMON] unsigned char 
  6620 ;;  vADC            2   11[BANK0 ] int 
  6621 ;; Return value:  Size  Location     Type
  6622 ;;                  2    7[BANK0 ] int 
  6623 ;; Registers used:
  6624 ;;		wreg, status,2, status,0
  6625 ;; Tracked objects:
  6626 ;;		On entry : 0/0
  6627 ;;		On exit  : 0/0
  6628 ;;		Unchanged: 0/0
  6629 ;; Data sizes:     COMMON   BANK0   BANK1   BANK2   BANK3   BANK4   BANK5   BANK6   BANK7   BANK8   BANK9  BANK10  BANK1
      +1  BANK12  BANK13  BANK14  BANK15  BANK16  BANK17  BANK18  BANK19  BANK20  BANK21  BANK22  BANK23  BANK24  BANK25
  6630 ;;      Params:         0       2       0       0       0       0       0       0       0       0       0       0       
      +0       0       0       0       0       0       0       0       0       0       0       0       0       0       0
  6631 ;;      Locals:         0       2       0       0       0       0       0       0       0       0       0       0       
      +0       0       0       0       0       0       0       0       0       0       0       0       0       0       0
  6632 ;;      Temps:          0       2       0       0       0       0       0       0       0       0       0       0       
      +0       0       0       0       0       0       0       0       0       0       0       0       0       0       0
  6633 ;;      Totals:         0       6       0       0       0       0       0       0       0       0       0       0       
      +0       0       0       0       0       0       0       0       0       0       0       0       0       0       0
  6634 ;;Total ram usage:        6 bytes
  6635 ;; Hardware stack levels used:    1
  6636 ;; Hardware stack levels required when called:    2
  6637 ;; This function calls:
  6638 ;;		Nothing
  6639 ;; This function is called by:
  6640 ;;		_main
  6641 ;;		_ScanFrq
  6642 ;; This function uses a non-reentrant model
  6643 ;;
  6644                           
  6645                           
  6646                           ;psect for function _ReadADC
  6647  048A                     _ReadADC:	
  6648                           
  6649                           ;ADC.c: 181: int vADC;
  6650                           ;ADC.c: 182: ADCON0 = ADCON0Tmp;
  6651                           
  6652                           ;incstack = 0
  6653                           ; Regs used in _ReadADC: [wreg+status,2+status,0]
  6654  048A  0020               	movlb	0	; select bank0
  6655  048B  085C               	movf	_ADCON0Tmp,w
  6656  048C  0021               	movlb	1	; select bank1
  6657  048D  009D               	movwf	29	;volatile
  6658                           
  6659                           ;ADC.c: 183: vADC = ADRESH;
  6660  048E  081C               	movf	28,w	;volatile
  6661  048F  0020               	movlb	0	; select bank0
  6662  0490  00A9               	movwf	??_ReadADC
  6663  0491  01AA               	clrf	??_ReadADC+1
  6664  0492  0829               	movf	??_ReadADC,w
  6665  0493  00AB               	movwf	ReadADC@vADC
  6666  0494  082A               	movf	??_ReadADC+1,w
  6667  0495  00AC               	movwf	ReadADC@vADC+1
  6668                           
  6669                           ;ADC.c: 184: vADC <<=8;
  6670  0496  3008               	movlw	8
  6671  0497                     u1025:	
  6672  0497  35AB               	lslf	ReadADC@vADC,f
  6673  0498  0DAC               	rlf	ReadADC@vADC+1,f
  6674  0499  0B89               	decfsz	9,f
  6675  049A  2C97               	goto	u1025
  6676                           
  6677                           ;ADC.c: 185: vADC |=ADRESL;
  6678  049B  0021               	movlb	1	; select bank1
  6679  049C  081B               	movf	27,w	;volatile
  6680  049D  0020               	movlb	0	; select bank0
  6681  049E  00A9               	movwf	??_ReadADC
  6682  049F  01AA               	clrf	??_ReadADC+1
  6683  04A0  0829               	movf	??_ReadADC,w
  6684  04A1  04AB               	iorwf	ReadADC@vADC,f
  6685  04A2  082A               	movf	??_ReadADC+1,w
  6686  04A3  04AC               	iorwf	ReadADC@vADC+1,f
  6687                           
  6688                           ;ADC.c: 186: GO=1;
  6689  04A4  0021               	movlb	1	; select bank1
  6690  04A5  149D               	bsf	29,1	;volatile
  6691                           
  6692                           ;ADC.c: 188: return vADC;
  6693  04A6  0020               	movlb	0	; select bank0
  6694  04A7  082C               	movf	ReadADC@vADC+1,w
  6695  04A8  01A8               	clrf	?_ReadADC+1
  6696  04A9  07A8               	addwf	?_ReadADC+1,f
  6697  04AA  082B               	movf	ReadADC@vADC,w
  6698  04AB  01A7               	clrf	?_ReadADC
  6699  04AC  07A7               	addwf	?_ReadADC,f
  6700  04AD  0008               	return
  6701  04AE                     __end_of_ReadADC:	
  6702                           
  6703                           	psect	intentry
  6704  0004                     __pintentry:	
  6705 ;; *************** function _isr *****************
  6706 ;; Defined at:
  6707 ;;		line 53 in file "interrupts.c"
  6708 ;; Parameters:    Size  Location     Type
  6709 ;;		None
  6710 ;; Auto vars:     Size  Location     Type
  6711 ;;		None
  6712 ;; Return value:  Size  Location     Type
  6713 ;;		None               void
  6714 ;; Registers used:
  6715 ;;		wreg, fsr1l, fsr1h, status,2, status,0, btemp+1, pclath, cstack
  6716 ;; Tracked objects:
  6717 ;;		On entry : 0/0
  6718 ;;		On exit  : 0/0
  6719 ;;		Unchanged: 0/0
  6720 ;; Data sizes:     COMMON   BANK0   BANK1   BANK2   BANK3   BANK4   BANK5   BANK6   BANK7   BANK8   BANK9  BANK10  BANK1
      +1  BANK12  BANK13  BANK14  BANK15  BANK16  BANK17  BANK18  BANK19  BANK20  BANK21  BANK22  BANK23  BANK24  BANK25
  6721 ;;      Params:         0       0       0       0       0       0       0       0       0       0       0       0       
      +0       0       0       0       0       0       0       0       0       0       0       0       0       0       0
  6722 ;;      Locals:         0       0       0       0       0       0       0       0       0       0       0       0       
      +0       0       0       0       0       0       0       0       0       0       0       0       0       0       0
  6723 ;;      Temps:          0       7       0       0       0       0       0       0       0       0       0       0       
      +0       0       0       0       0       0       0       0       0       0       0       0       0       0       0
  6724 ;;      Totals:         0       7       0       0       0       0       0       0       0       0       0       0       
      +0       0       0       0       0       0       0       0       0       0       0       0       0       0       0
  6725 ;;Total ram usage:        7 bytes
  6726 ;; Hardware stack levels used:    1
  6727 ;; Hardware stack levels required when called:    1
  6728 ;; This function calls:
  6729 ;;		___lmul
  6730 ;;		i1_PWMSetPeriod
  6731 ;;		i1_PWMSetDutyCycle
  6732 ;; This function is called by:
  6733 ;;		Interrupt level 1
  6734 ;; This function uses a non-reentrant model
  6735 ;;
  6736                           
  6737  0004                     _isr:	
  6738                           
  6739                           ;incstack = 0
  6740                           ; Regs used in _isr: [wreg+fsr1l+fsr1h+status,2+status,0+btemp+1+pclath+cstack]
  6741  0004  3180               	pagesel	$
  6742  0005  0020               	movlb	0	; select bank0
  6743  0006  087F               	movf	127,w
  6744  0007  00A6               	movwf	??_isr+6
  6745                           
  6746                           ;interrupts.c: 79: (GIE = 0);
  6747  0008  138B               	bcf	11,7	;volatile
  6748                           
  6749                           ;interrupts.c: 81: if(TMR0IE && TMR0IF)
  6750  0009  1A8B               	btfsc	11,5	;volatile
  6751  000A  1D0B               	btfss	11,2	;volatile
  6752  000B  281B               	goto	i1l2445
  6753                           
  6754                           ;interrupts.c: 82: {
  6755                           ;interrupts.c: 83: if (counter == 100)
  6756  000C  3064               	movlw	100
  6757  000D  064D               	xorwf	_counter,w	;volatile
  6758  000E  044E               	iorwf	_counter+1,w	;volatile
  6759  000F  1D03               	skipz
  6760  0010  2814               	goto	i1l2439
  6761                           
  6762                           ;interrupts.c: 84: {
  6763                           ;interrupts.c: 85: counter = 0;
  6764  0011  01CD               	clrf	_counter	;volatile
  6765  0012  01CE               	clrf	_counter+1	;volatile
  6766                           
  6767                           ;interrupts.c: 86: flgTicTac = 1;
  6768  0013  1565               	bsf	_flgTicTac/(0+8),_flgTicTac& (0+7)	;volatile
  6769  0014                     i1l2439:	
  6770                           
  6771                           ;interrupts.c: 87: }
  6772                           ;interrupts.c: 88: ++counter;
  6773  0014  3001               	movlw	1
  6774  0015  07CD               	addwf	_counter,f	;volatile
  6775  0016  3000               	movlw	0
  6776  0017  3DCE               	addwfc	_counter+1,f	;volatile
  6777                           
  6778                           ;interrupts.c: 89: TMR0IF=0;
  6779  0018  110B               	bcf	11,2	;volatile
  6780                           
  6781                           ;interrupts.c: 90: TMR0 = 205;
  6782  0019  30CD               	movlw	205
  6783  001A  0095               	movwf	21	;volatile
  6784  001B                     i1l2445:	
  6785                           
  6786                           ;interrupts.c: 91: }
  6787                           ;interrupts.c: 94: if (P1TPRIE && P1TPRIF)
  6788  001B  003D               	movlb	29	; select bank29
  6789  001C  1A20               	btfsc	32,4	;volatile
  6790  001D  1C20               	btfss	32,0	;volatile
  6791  001E  28A2               	goto	i1l2473
  6792                           
  6793                           ;interrupts.c: 95: {
  6794                           ;interrupts.c: 97: cntPerd++;
  6795  001F  3001               	movlw	1
  6796  0020  0020               	movlb	0	; select bank0
  6797  0021  00A0               	movwf	??_isr
  6798  0022  0820               	movf	??_isr,w
  6799  0023  07E1               	addwf	_cntPerd,f
  6800                           
  6801                           ;interrupts.c: 98: if (flgPSMC==0)
  6802  0024  18E5               	btfsc	_flgPSMC/(0+8),_flgPSMC& (0+7)	;volatile
  6803  0025  2892               	goto	i1l2463
  6804                           
  6805                           ;interrupts.c: 99: {
  6806                           ;interrupts.c: 100: if (cntPerd == 10)
  6807  0026  0861               	movf	_cntPerd,w
  6808  0027  3A0A               	xorlw	10
  6809  0028  1D03               	skipz
  6810  0029  282C               	goto	i1l2459
  6811                           
  6812                           ;interrupts.c: 101: {
  6813                           ;interrupts.c: 102: flgPSMC = 1;
  6814  002A  14E5               	bsf	_flgPSMC/(0+8),_flgPSMC& (0+7)	;volatile
  6815                           
  6816                           ;interrupts.c: 103: cntPerd = 0;
  6817  002B  01E1               	clrf	_cntPerd
  6818  002C                     i1l2459:	
  6819                           
  6820                           ;interrupts.c: 104: }
  6821                           ;interrupts.c: 105: PWMSetPeriod (64000-((uint32_t)62720*vPWM)/4096);
  6822  002C  0866               	movf	_vPWM,w
  6823  002D  00F0               	movwf	?___lmul
  6824  002E  0867               	movf	_vPWM+1,w
  6825  002F  00F1               	movwf	?___lmul+1
  6826  0030  0D89               	rlf	9,f
  6827  0031  3B89               	subwfb	9,f
  6828  0032  0989               	comf	9,f
  6829  0033  00F2               	movwf	?___lmul+2
  6830  0034  00F3               	movwf	?___lmul+3
  6831  0035  3000               	movlw	0
  6832  0036  00F7               	movwf	?___lmul+7
  6833  0037  3000               	movlw	0
  6834  0038  00F6               	movwf	?___lmul+6
  6835  0039  30F5               	movlw	245
  6836  003A  00F5               	movwf	?___lmul+5
  6837  003B  3000               	movlw	0
  6838  003C  00F4               	movwf	?___lmul+4
  6839  003D  3184  2401  3180   	fcall	___lmul
  6840  0040  0870               	movf	?___lmul,w
  6841  0041  0020               	movlb	0	; select bank0
  6842  0042  00A0               	movwf	??_isr
  6843  0043  0871               	movf	?___lmul+1,w
  6844  0044  00A1               	movwf	??_isr+1
  6845  0045  0872               	movf	?___lmul+2,w
  6846  0046  00A2               	movwf	??_isr+2
  6847  0047  0873               	movf	?___lmul+3,w
  6848  0048  00A3               	movwf	??_isr+3
  6849  0049  300C               	movlw	12
  6850  004A                     u210_25:	
  6851  004A  36A3               	lsrf	??_isr+3,f
  6852  004B  0CA2               	rrf	??_isr+2,f
  6853  004C  0CA1               	rrf	??_isr+1,f
  6854  004D  0CA0               	rrf	??_isr,f
  6855  004E  0B89               	decfsz	9,f
  6856  004F  284A               	goto	u210_25
  6857  0050  0920               	comf	??_isr,w
  6858  0051  00A4               	movwf	??_isr+4
  6859  0052  0921               	comf	??_isr+1,w
  6860  0053  00A5               	movwf	??_isr+5
  6861  0054  0AA4               	incf	??_isr+4,f
  6862  0055  1903               	skipnz
  6863  0056  0AA5               	incf	??_isr+5,f
  6864  0057  0824               	movf	??_isr+4,w
  6865  0058  3E00               	addlw	0
  6866  0059  00FC               	movwf	?i1_PWMSetPeriod
  6867  005A  30FA               	movlw	250
  6868  005B  3D25               	addwfc	??_isr+5,w
  6869  005C  00FD               	movwf	?i1_PWMSetPeriod+1
  6870  005D  3185  2563  3180   	fcall	i1_PWMSetPeriod
  6871                           
  6872                           ;interrupts.c: 106: PWMSetDutyCycle (32000-((uint32_t)62720*vPWM)/8192);
  6873  0060  0020               	movlb	0	; select bank0
  6874  0061  0866               	movf	_vPWM,w
  6875  0062  00F0               	movwf	?___lmul
  6876  0063  0867               	movf	_vPWM+1,w
  6877  0064  00F1               	movwf	?___lmul+1
  6878  0065  0D89               	rlf	9,f
  6879  0066  3B89               	subwfb	9,f
  6880  0067  0989               	comf	9,f
  6881  0068  00F2               	movwf	?___lmul+2
  6882  0069  00F3               	movwf	?___lmul+3
  6883  006A  3000               	movlw	0
  6884  006B  00F7               	movwf	?___lmul+7
  6885  006C  3000               	movlw	0
  6886  006D  00F6               	movwf	?___lmul+6
  6887  006E  30F5               	movlw	245
  6888  006F  00F5               	movwf	?___lmul+5
  6889  0070  3000               	movlw	0
  6890  0071  00F4               	movwf	?___lmul+4
  6891  0072  3184  2401  3180   	fcall	___lmul
  6892  0075  0870               	movf	?___lmul,w
  6893  0076  0020               	movlb	0	; select bank0
  6894  0077  00A0               	movwf	??_isr
  6895  0078  0871               	movf	?___lmul+1,w
  6896  0079  00A1               	movwf	??_isr+1
  6897  007A  0872               	movf	?___lmul+2,w
  6898  007B  00A2               	movwf	??_isr+2
  6899  007C  0873               	movf	?___lmul+3,w
  6900  007D  00A3               	movwf	??_isr+3
  6901  007E  300D               	movlw	13
  6902  007F                     u211_25:	
  6903  007F  36A3               	lsrf	??_isr+3,f
  6904  0080  0CA2               	rrf	??_isr+2,f
  6905  0081  0CA1               	rrf	??_isr+1,f
  6906  0082  0CA0               	rrf	??_isr,f
  6907  0083  0B89               	decfsz	9,f
  6908  0084  287F               	goto	u211_25
  6909  0085  0920               	comf	??_isr,w
  6910  0086  00A4               	movwf	??_isr+4
  6911  0087  0921               	comf	??_isr+1,w
  6912  0088  00A5               	movwf	??_isr+5
  6913  0089  0AA4               	incf	??_isr+4,f
  6914  008A  1903               	skipnz
  6915  008B  0AA5               	incf	??_isr+5,f
  6916  008C  0824               	movf	??_isr+4,w
  6917  008D  3E00               	addlw	0
  6918  008E  00FC               	movwf	?i1_PWMSetDutyCycle
  6919  008F  307D               	movlw	125
  6920  0090  3D25               	addwfc	??_isr+5,w
  6921  0091  289C               	goto	L2
  6922  0092                     i1l2463:	
  6923                           ;interrupts.c: 110: }
  6924                           
  6925                           
  6926                           ;interrupts.c: 111: else
  6927                           ;interrupts.c: 112: {
  6928                           ;interrupts.c: 113: if (cntPerd == 250)
  6929  0092  0020               	movlb	0	; select bank0
  6930  0093  0861               	movf	_cntPerd,w
  6931  0094  3AFA               	xorlw	250
  6932  0095  1D03               	skipz
  6933  0096  2899               	goto	i1l2469
  6934                           
  6935                           ;interrupts.c: 114: {
  6936                           ;interrupts.c: 115: flgPSMC = 0;
  6937  0097  10E5               	bcf	_flgPSMC/(0+8),_flgPSMC& (0+7)	;volatile
  6938                           
  6939                           ;interrupts.c: 116: cntPerd = 0;
  6940  0098  01E1               	clrf	_cntPerd
  6941  0099                     i1l2469:	
  6942                           
  6943                           ;interrupts.c: 117: }
  6944                           ;interrupts.c: 119: PWMSetDutyCycle (0);
  6945  0099  3000               	movlw	0
  6946  009A  00FC               	movwf	?i1_PWMSetDutyCycle
  6947  009B  3000               	movlw	0
  6948  009C                     L2:	
  6949  009C  00FD               	movwf	?i1_PWMSetDutyCycle+1
  6950  009D  3185  255C  3180   	fcall	i1_PWMSetDutyCycle
  6951                           
  6952                           ;interrupts.c: 120: }
  6953                           ;interrupts.c: 122: P1TPRIF = 0;
  6954  00A0  003D               	movlb	29	; select bank29
  6955  00A1  1020               	bcf	32,0	;volatile
  6956  00A2                     i1l2473:	
  6957                           
  6958                           ;interrupts.c: 124: }
  6959                           ;interrupts.c: 130: if (RCIE && RCIF)
  6960  00A2  0021               	movlb	1	; select bank1
  6961  00A3  1E91               	btfss	17,5	;volatile
  6962  00A4  28B6               	goto	i1l2481
  6963  00A5  0020               	movlb	0	; select bank0
  6964  00A6  1E91               	btfss	17,5	;volatile
  6965  00A7  28B6               	goto	i1l2481
  6966                           
  6967                           ;interrupts.c: 131: {
  6968                           ;interrupts.c: 132: UART_chRxBuf[UART_cntRxUART++] = RCREG;
  6969  00A8  0023               	movlb	3	; select bank3
  6970  00A9  0819               	movf	25,w	;volatile
  6971  00AA  0020               	movlb	0	; select bank0
  6972  00AB  00A0               	movwf	??_isr
  6973  00AC  085E               	movf	_UART_cntRxUART,w
  6974  00AD  3EA0               	addlw	_UART_chRxBuf& (0+255)
  6975  00AE  0086               	movwf	6
  6976  00AF  0187               	clrf	7
  6977  00B0  0820               	movf	??_isr,w
  6978  00B1  0081               	movwf	1
  6979  00B2  3001               	movlw	1
  6980  00B3  00A0               	movwf	??_isr
  6981  00B4  0820               	movf	??_isr,w
  6982  00B5  07DE               	addwf	_UART_cntRxUART,f	;volatile
  6983  00B6                     i1l2481:	
  6984                           
  6985                           ;interrupts.c: 133: }
  6986                           ;interrupts.c: 136: if (TXIE && TXIF)
  6987  00B6  0021               	movlb	1	; select bank1
  6988  00B7  1E11               	btfss	17,4	;volatile
  6989  00B8  28D5               	goto	i1l270
  6990  00B9  0020               	movlb	0	; select bank0
  6991  00BA  1E11               	btfss	17,4	;volatile
  6992  00BB  28D5               	goto	i1l270
  6993                           
  6994                           ;interrupts.c: 138: {
  6995                           ;interrupts.c: 139: if ((UART_cntTxUART!=0))
  6996  00BC  085F               	movf	_UART_cntTxUART,w	;volatile
  6997  00BD  1903               	btfsc	3,2
  6998  00BE  28D1               	goto	i1l271
  6999                           
  7000                           ;interrupts.c: 140: {
  7001                           ;interrupts.c: 141: TXREG = UART_chTxBuf[stLen];
  7002  00BF  0864               	movf	_stLen,w
  7003  00C0  3EB4               	addlw	_UART_chTxBuf& (0+255)
  7004  00C1  0086               	movwf	6
  7005  00C2  0187               	clrf	7
  7006  00C3  0801               	movf	1,w
  7007  00C4  0023               	movlb	3	; select bank3
  7008  00C5  009A               	movwf	26	;volatile
  7009                           
  7010                           ;interrupts.c: 144: stLen++;
  7011  00C6  3001               	movlw	1
  7012  00C7  0020               	movlb	0	; select bank0
  7013  00C8  00A0               	movwf	??_isr
  7014  00C9  0820               	movf	??_isr,w
  7015  00CA  07E4               	addwf	_stLen,f
  7016                           
  7017                           ;interrupts.c: 146: if (stLen == UART_cntTxUART)
  7018  00CB  0864               	movf	_stLen,w
  7019  00CC  065F               	xorwf	_UART_cntTxUART,w	;volatile
  7020  00CD  1D03               	skipz
  7021  00CE  28D5               	goto	i1l270
  7022                           
  7023                           ;interrupts.c: 147: {
  7024                           ;interrupts.c: 148: UART_cntTxUART = 0;
  7025  00CF  01DF               	clrf	_UART_cntTxUART	;volatile
  7026                           
  7027                           ;interrupts.c: 149: stLen = 0;
  7028  00D0  01E4               	clrf	_stLen
  7029  00D1                     i1l271:	
  7030                           ;interrupts.c: 153: }
  7031                           ;interrupts.c: 154: }
  7032                           
  7033                           ;interrupts.c: 151: TXIE = 0;
  7034                           
  7035                           ;interrupts.c: 150: TXEN = 0;
  7036                           
  7037                           
  7038                           ;interrupts.c: 155: else
  7039                           ;interrupts.c: 156: {
  7040                           ;interrupts.c: 158: TXEN = 0;
  7041  00D1  0023               	movlb	3	; select bank3
  7042  00D2  129E               	bcf	30,5	;volatile
  7043                           
  7044                           ;interrupts.c: 159: TXIE = 0;
  7045  00D3  0021               	movlb	1	; select bank1
  7046  00D4  1211               	bcf	17,4	;volatile
  7047  00D5                     i1l270:	
  7048                           
  7049                           ;interrupts.c: 160: }
  7050                           ;interrupts.c: 161: }
  7051                           ;interrupts.c: 166: if (ADIE&&ADIF)
  7052  00D5  0021               	movlb	1	; select bank1
  7053  00D6  1F11               	btfss	17,6	;volatile
  7054  00D7  2920               	goto	i1l2521
  7055  00D8  0020               	movlb	0	; select bank0
  7056  00D9  1F11               	btfss	17,6	;volatile
  7057  00DA  2920               	goto	i1l2521
  7058                           
  7059                           ;interrupts.c: 167: {
  7060                           ;interrupts.c: 169: if (idxADC<100)
  7061  00DB  3064               	movlw	100
  7062  00DC  0263               	subwf	_idxADC,w
  7063  00DD  1803               	skipnc
  7064  00DE  28E5               	goto	i1l2507
  7065                           
  7066                           ;interrupts.c: 170: {
  7067                           ;interrupts.c: 171: idxADC++;
  7068  00DF  3001               	movlw	1
  7069  00E0  00A0               	movwf	??_isr
  7070  00E1  0820               	movf	??_isr,w
  7071  00E2  07E3               	addwf	_idxADC,f
  7072                           
  7073                           ;interrupts.c: 172: flgADCAryFull = 0;
  7074  00E3  1065               	bcf	_flgADCAryFull/(0+8),_flgADCAryFull& (0+7)	;volatile
  7075                           
  7076                           ;interrupts.c: 173: }
  7077  00E4  28E9               	goto	i1l2513
  7078  00E5                     i1l2507:	
  7079                           
  7080                           ;interrupts.c: 174: else
  7081                           ;interrupts.c: 175: {
  7082                           ;interrupts.c: 176: idxADC = 0;
  7083  00E5  01E3               	clrf	_idxADC
  7084                           
  7085                           ;interrupts.c: 177: flgADCAryFull = 1;
  7086  00E6  1465               	bsf	_flgADCAryFull/(0+8),_flgADCAryFull& (0+7)	;volatile
  7087                           
  7088                           ;interrupts.c: 178: ADIE = 0;
  7089  00E7  0021               	movlb	1	; select bank1
  7090  00E8  1311               	bcf	17,6	;volatile
  7091  00E9                     i1l2513:	
  7092                           
  7093                           ;interrupts.c: 181: }
  7094                           ;interrupts.c: 183: ADC_vADCAry[idxADC] = ADRESH<<8;
  7095  00E9  0021               	movlb	1	; select bank1
  7096  00EA  081C               	movf	28,w	;volatile
  7097  00EB  0020               	movlb	0	; select bank0
  7098  00EC  00A0               	movwf	??_isr
  7099  00ED  01A1               	clrf	??_isr+1
  7100  00EE  0820               	movf	??_isr,w
  7101  00EF  00A1               	movwf	??_isr+1
  7102  00F0  01A0               	clrf	??_isr
  7103  00F1  0863               	movf	_idxADC,w
  7104  00F2  00A2               	movwf	??_isr+2
  7105  00F3  01A3               	clrf	??_isr+3
  7106  00F4  35A2               	lslf	??_isr+2,f
  7107  00F5  0DA3               	rlf	??_isr+3,f
  7108  00F6  3028               	movlw	40
  7109  00F7  00A4               	movwf	??_isr+4
  7110  00F8  3027               	movlw	39
  7111  00F9  00A5               	movwf	??_isr+5
  7112  00FA  0822               	movf	??_isr+2,w
  7113  00FB  0724               	addwf	??_isr+4,w
  7114  00FC  0086               	movwf	6
  7115  00FD  0823               	movf	??_isr+3,w
  7116  00FE  3D25               	addwfc	??_isr+5,w
  7117  00FF  0087               	movwf	7
  7118  0100  0820               	movf	??_isr,w
  7119  0101  3FC0               	movwi [0]fsr1
  7120  0102  0821               	movf	??_isr+1,w
  7121  0103  3FC1               	movwi [1]fsr1
  7122                           
  7123                           ;interrupts.c: 185: ADC_vADCAry[idxADC] |=ADRESL;
  7124  0104  0021               	movlb	1	; select bank1
  7125  0105  081B               	movf	27,w	;volatile
  7126  0106  0020               	movlb	0	; select bank0
  7127  0107  00A0               	movwf	??_isr
  7128  0108  01A1               	clrf	??_isr+1
  7129  0109  0863               	movf	_idxADC,w
  7130  010A  00A2               	movwf	??_isr+2
  7131  010B  01A3               	clrf	??_isr+3
  7132  010C  35A2               	lslf	??_isr+2,f
  7133  010D  0DA3               	rlf	??_isr+3,f
  7134  010E  3028               	movlw	40
  7135  010F  00A4               	movwf	??_isr+4
  7136  0110  3027               	movlw	39
  7137  0111  00A5               	movwf	??_isr+5
  7138  0112  0822               	movf	??_isr+2,w
  7139  0113  0724               	addwf	??_isr+4,w
  7140  0114  0086               	movwf	6
  7141  0115  0823               	movf	??_isr+3,w
  7142  0116  3D25               	addwfc	??_isr+5,w
  7143  0117  0087               	movwf	7
  7144  0118  0820               	movf	??_isr,w
  7145  0119  0481               	iorwf	1,f
  7146  011A  3141               	addfsr 1,1
  7147  011B  0821               	movf	??_isr+1,w
  7148  011C  0481               	iorwf	1,f
  7149                           
  7150                           ;interrupts.c: 187: ADIF = 0;
  7151  011D  1311               	bcf	17,6	;volatile
  7152                           
  7153                           ;interrupts.c: 188: GO=1;
  7154  011E  0021               	movlb	1	; select bank1
  7155  011F  149D               	bsf	29,1	;volatile
  7156  0120                     i1l2521:	
  7157                           
  7158                           ;interrupts.c: 189: }
  7159                           ;interrupts.c: 192: (GIE = 1);
  7160  0120  178B               	bsf	11,7	;volatile
  7161  0121  0020               	movlb	0	; select bank0
  7162  0122  0826               	movf	??_isr+6,w
  7163  0123  00FF               	movwf	127
  7164  0124  0009               	retfie
  7165  0125                     __end_of_isr:	
  7166                           
  7167                           	psect	text22
  7168  055C                     __ptext22:	
  7169 ;; *************** function i1_PWMSetDutyCycle *****************
  7170 ;; Defined at:
  7171 ;;		line 141 in file "PWM.c"
  7172 ;; Parameters:    Size  Location     Type
  7173 ;;  cntDutyCycle    2   12[COMMON] unsigned int 
  7174 ;; Auto vars:     Size  Location     Type
  7175 ;;		None
  7176 ;; Return value:  Size  Location     Type
  7177 ;;		None               void
  7178 ;; Registers used:
  7179 ;;		wreg, status,2
  7180 ;; Tracked objects:
  7181 ;;		On entry : 0/0
  7182 ;;		On exit  : 0/0
  7183 ;;		Unchanged: 0/0
  7184 ;; Data sizes:     COMMON   BANK0   BANK1   BANK2   BANK3   BANK4   BANK5   BANK6   BANK7   BANK8   BANK9  BANK10  BANK1
      +1  BANK12  BANK13  BANK14  BANK15  BANK16  BANK17  BANK18  BANK19  BANK20  BANK21  BANK22  BANK23  BANK24  BANK25
  7185 ;;      Params:         2       0       0       0       0       0       0       0       0       0       0       0       
      +0       0       0       0       0       0       0       0       0       0       0       0       0       0       0
  7186 ;;      Locals:         0       0       0       0       0       0       0       0       0       0       0       0       
      +0       0       0       0       0       0       0       0       0       0       0       0       0       0       0
  7187 ;;      Temps:          0       0       0       0       0       0       0       0       0       0       0       0       
      +0       0       0       0       0       0       0       0       0       0       0       0       0       0       0
  7188 ;;      Totals:         2       0       0       0       0       0       0       0       0       0       0       0       
      +0       0       0       0       0       0       0       0       0       0       0       0       0       0       0
  7189 ;;Total ram usage:        2 bytes
  7190 ;; Hardware stack levels used:    1
  7191 ;; This function calls:
  7192 ;;		Nothing
  7193 ;; This function is called by:
  7194 ;;		_isr
  7195 ;; This function uses a non-reentrant model
  7196 ;;
  7197                           
  7198                           
  7199                           ;psect for function i1_PWMSetDutyCycle
  7200  055C                     i1_PWMSetDutyCycle:	
  7201                           
  7202                           ;PWM.c: 144: PSMC1DCL = cntDutyCycle & 0x00FF;
  7203                           
  7204                           ;incstack = 0
  7205                           ; Regs used in i1_PWMSetDutyCycle: [wreg+status,2]
  7206  055C  087C               	movf	i1PWMSetDutyCycle@cntDutyCycle,w
  7207  055D  003D               	movlb	29	; select bank29
  7208  055E  00A3               	movwf	35	;volatile
  7209                           
  7210                           ;PWM.c: 145: PSMC1DCH = cntDutyCycle>>8;
  7211  055F  087D               	movf	i1PWMSetDutyCycle@cntDutyCycle+1,w
  7212  0560  00A4               	movwf	36	;volatile
  7213                           
  7214                           ;PWM.c: 147: PSMC1LD = 1;
  7215  0561  1711               	bsf	17,6	;volatile
  7216  0562  0008               	return
  7217  0563                     __end_ofi1_PWMSetDutyCycle:	
  7218                           
  7219                           	psect	text23
  7220  0563                     __ptext23:	
  7221 ;; *************** function i1_PWMSetPeriod *****************
  7222 ;; Defined at:
  7223 ;;		line 130 in file "PWM.c"
  7224 ;; Parameters:    Size  Location     Type
  7225 ;;  cntPeriod       2   12[COMMON] unsigned int 
  7226 ;; Auto vars:     Size  Location     Type
  7227 ;;		None
  7228 ;; Return value:  Size  Location     Type
  7229 ;;		None               void
  7230 ;; Registers used:
  7231 ;;		wreg, status,2
  7232 ;; Tracked objects:
  7233 ;;		On entry : 0/0
  7234 ;;		On exit  : 0/0
  7235 ;;		Unchanged: 0/0
  7236 ;; Data sizes:     COMMON   BANK0   BANK1   BANK2   BANK3   BANK4   BANK5   BANK6   BANK7   BANK8   BANK9  BANK10  BANK1
      +1  BANK12  BANK13  BANK14  BANK15  BANK16  BANK17  BANK18  BANK19  BANK20  BANK21  BANK22  BANK23  BANK24  BANK25
  7237 ;;      Params:         2       0       0       0       0       0       0       0       0       0       0       0       
      +0       0       0       0       0       0       0       0       0       0       0       0       0       0       0
  7238 ;;      Locals:         0       0       0       0       0       0       0       0       0       0       0       0       
      +0       0       0       0       0       0       0       0       0       0       0       0       0       0       0
  7239 ;;      Temps:          0       0       0       0       0       0       0       0       0       0       0       0       
      +0       0       0       0       0       0       0       0       0       0       0       0       0       0       0
  7240 ;;      Totals:         2       0       0       0       0       0       0       0       0       0       0       0       
      +0       0       0       0       0       0       0       0       0       0       0       0       0       0       0
  7241 ;;Total ram usage:        2 bytes
  7242 ;; Hardware stack levels used:    1
  7243 ;; This function calls:
  7244 ;;		Nothing
  7245 ;; This function is called by:
  7246 ;;		_isr
  7247 ;; This function uses a non-reentrant model
  7248 ;;
  7249                           
  7250                           
  7251                           ;psect for function i1_PWMSetPeriod
  7252  0563                     i1_PWMSetPeriod:	
  7253                           
  7254                           ;PWM.c: 132: PSMC1PRL = cntPeriod & 0x00FF;
  7255                           
  7256                           ;incstack = 0
  7257                           ; Regs used in i1_PWMSetPeriod: [wreg+status,2]
  7258  0563  087C               	movf	i1PWMSetPeriod@cntPeriod,w
  7259  0564  003D               	movlb	29	; select bank29
  7260  0565  00A5               	movwf	37	;volatile
  7261                           
  7262                           ;PWM.c: 133: PSMC1PRH = cntPeriod>>8;
  7263  0566  087D               	movf	i1PWMSetPeriod@cntPeriod+1,w
  7264  0567  00A6               	movwf	38	;volatile
  7265  0568  0008               	return
  7266  0569                     __end_ofi1_PWMSetPeriod:	
  7267                           
  7268                           	psect	text24
  7269  0401                     __ptext24:	
  7270 ;; *************** function ___lmul *****************
  7271 ;; Defined at:
  7272 ;;		line 3 in file "C:\Program Files (x86)\Microchip\xc8\v1.21\sources\pic\lmul.c"
  7273 ;; Parameters:    Size  Location     Type
  7274 ;;  multiplier      4    0[COMMON] unsigned long 
  7275 ;;  multiplicand    4    4[COMMON] unsigned long 
  7276 ;; Auto vars:     Size  Location     Type
  7277 ;;  product         4    8[COMMON] unsigned long 
  7278 ;; Return value:  Size  Location     Type
  7279 ;;                  4    0[COMMON] unsigned long 
  7280 ;; Registers used:
  7281 ;;		wreg, status,2, status,0
  7282 ;; Tracked objects:
  7283 ;;		On entry : 0/0
  7284 ;;		On exit  : 0/0
  7285 ;;		Unchanged: 0/0
  7286 ;; Data sizes:     COMMON   BANK0   BANK1   BANK2   BANK3   BANK4   BANK5   BANK6   BANK7   BANK8   BANK9  BANK10  BANK1
      +1  BANK12  BANK13  BANK14  BANK15  BANK16  BANK17  BANK18  BANK19  BANK20  BANK21  BANK22  BANK23  BANK24  BANK25
  7287 ;;      Params:         8       0       0       0       0       0       0       0       0       0       0       0       
      +0       0       0       0       0       0       0       0       0       0       0       0       0       0       0
  7288 ;;      Locals:         4       0       0       0       0       0       0       0       0       0       0       0       
      +0       0       0       0       0       0       0       0       0       0       0       0       0       0       0
  7289 ;;      Temps:          0       0       0       0       0       0       0       0       0       0       0       0       
      +0       0       0       0       0       0       0       0       0       0       0       0       0       0       0
  7290 ;;      Totals:        12       0       0       0       0       0       0       0       0       0       0       0       
      +0       0       0       0       0       0       0       0       0       0       0       0       0       0       0
  7291 ;;Total ram usage:       12 bytes
  7292 ;; Hardware stack levels used:    1
  7293 ;; This function calls:
  7294 ;;		Nothing
  7295 ;; This function is called by:
  7296 ;;		_isr
  7297 ;; This function uses a non-reentrant model
  7298 ;;
  7299                           
  7300                           
  7301                           ;psect for function ___lmul
  7302  0401                     ___lmul:	
  7303                           
  7304                           ;incstack = 0
  7305                           ; Regs used in ___lmul: [wreg+status,2+status,0]
  7306  0401  3000               	movlw	0
  7307  0402  00FB               	movwf	___lmul@product+3
  7308  0403  3000               	movlw	0
  7309  0404  00FA               	movwf	___lmul@product+2
  7310  0405  3000               	movlw	0
  7311  0406  00F9               	movwf	___lmul@product+1
  7312  0407  3000               	movlw	0
  7313  0408  00F8               	movwf	___lmul@product
  7314  0409                     i1l2359:	
  7315  0409  1C70               	btfss	___lmul@multiplier,0
  7316  040A  2C13               	goto	i1l2363
  7317  040B  0874               	movf	___lmul@multiplicand,w
  7318  040C  07F8               	addwf	___lmul@product,f
  7319  040D  0875               	movf	___lmul@multiplicand+1,w
  7320  040E  3DF9               	addwfc	___lmul@product+1,f
  7321  040F  0876               	movf	___lmul@multiplicand+2,w
  7322  0410  3DFA               	addwfc	___lmul@product+2,f
  7323  0411  0877               	movf	___lmul@multiplicand+3,w
  7324  0412  3DFB               	addwfc	___lmul@product+3,f
  7325  0413                     i1l2363:	
  7326  0413  3001               	movlw	1
  7327  0414                     u187_25:	
  7328  0414  35F4               	lslf	___lmul@multiplicand,f
  7329  0415  0DF5               	rlf	___lmul@multiplicand+1,f
  7330  0416  0DF6               	rlf	___lmul@multiplicand+2,f
  7331  0417  0DF7               	rlf	___lmul@multiplicand+3,f
  7332  0418  0B89               	decfsz	9,f
  7333  0419  2C14               	goto	u187_25
  7334  041A  3001               	movlw	1
  7335  041B                     u188_25:	
  7336  041B  36F3               	lsrf	___lmul@multiplier+3,f
  7337  041C  0CF2               	rrf	___lmul@multiplier+2,f
  7338  041D  0CF1               	rrf	___lmul@multiplier+1,f
  7339  041E  0CF0               	rrf	___lmul@multiplier,f
  7340  041F  0B89               	decfsz	9,f
  7341  0420  2C1B               	goto	u188_25
  7342  0421  0873               	movf	___lmul@multiplier+3,w
  7343  0422  0472               	iorwf	___lmul@multiplier+2,w
  7344  0423  0471               	iorwf	___lmul@multiplier+1,w
  7345  0424  0470               	iorwf	___lmul@multiplier,w
  7346  0425  1D03               	skipz
  7347  0426  2C09               	goto	i1l2359
  7348  0427  087B               	movf	___lmul@product+3,w
  7349  0428  00F3               	movwf	?___lmul+3
  7350  0429  087A               	movf	___lmul@product+2,w
  7351  042A  00F2               	movwf	?___lmul+2
  7352  042B  0879               	movf	___lmul@product+1,w
  7353  042C  00F1               	movwf	?___lmul+1
  7354  042D  0878               	movf	___lmul@product,w
  7355  042E  00F0               	movwf	?___lmul
  7356  042F  0008               	return
  7357  0430                     __end_of___lmul:	
  7358  007E                     btemp	set	126	;btemp
  7359  007E                     wtemp0	set	126


Data Sizes:
    Strings     9
    Constant    10
    Data        2
    BSS         92
    Persistent  0
    Stack       0

Auto Spaces:
    Space          Size  Autos    Used
    COMMON           14     14      14
    BANK0            80     37      72
    BANK1            80      0      60
    BANK2            80      0       0
    BANK3            80      0       0
    BANK4            80      0       0
    BANK5            80      0       0
    BANK6            80      0       0
    BANK7            80      0       0
    BANK8            80      0       0
    BANK9            80      0       0
    BANK10           80      0       0
    BANK11           80      0       0
    BANK12           80      0       0
    BANK13           80      0       0
    BANK14           80      0       0
    BANK15           80      0       0
    BANK16           80      0       0
    BANK17           80      0       0
    BANK18           80      0       0
    BANK19           80      0       0
    BANK20           80      0       0
    BANK21           80      0       0
    BANK22           72      0       0
    BANK23            0      0       0
    BANK24            0      0       0
    BANK25            0      0       0

Pointer List with Targets:

    ?___lwdiv	unsigned int  size(1) Largest target is 0

    ?___lwmod	unsigned int  size(1) Largest target is 0

    ?___awdiv	int  size(1) Largest target is 0

    ?___lmul	unsigned long  size(1) Largest target is 0

    ?_ReadADC	int  size(1) Largest target is 0

    sprintf@f	PTR const unsigned char  size(1) Largest target is 9
		 -> STR_1(CODE[9]), 

    sprintf@sp	PTR unsigned char  size(1) Largest target is 20
		 -> chBufADC(BANK1[20]), 

    ?_sprintf	int  size(1) Largest target is 0

    sprintf@ap	PTR void [1] size(1) Largest target is 2
		 -> ?_sprintf(BANK0[2]), 

    S377$_cp	PTR const unsigned char  size(1) Largest target is 0

    _val._str._cp	PTR const unsigned char  size(1) Largest target is 0

    UARTSend@pData	PTR unsigned char  size(1) Largest target is 20
		 -> chBufADC(BANK1[20]), 


Critical Paths under _main in COMMON

    None.

Critical Paths under _isr in COMMON

    _isr->i1_PWMSetPeriod
    _isr->i1_PWMSetDutyCycle
    i1_PWMSetDutyCycle->___lmul
    i1_PWMSetPeriod->___lmul

Critical Paths under _main in BANK0

    _main->_sprintf
    _sprintf->___lwmod
    ___lwmod->___lwdiv
    _InitApp->_ADCIni
    _PWMSetConfig->_PWMSetDutyCycle
    _PWMSetConfig->_PWMSetPeriod
    _PWMSetConfig->_PWMSetPhase

Critical Paths under _isr in BANK0

    None.

Critical Paths under _main in BANK1

    None.

Critical Paths under _isr in BANK1

    None.

Critical Paths under _main in BANK2

    None.

Critical Paths under _isr in BANK2

    None.

Critical Paths under _main in BANK3

    None.

Critical Paths under _isr in BANK3

    None.

Critical Paths under _main in BANK4

    None.

Critical Paths under _isr in BANK4

    None.

Critical Paths under _main in BANK5

    None.

Critical Paths under _isr in BANK5

    None.

Critical Paths under _main in BANK6

    None.

Critical Paths under _isr in BANK6

    None.

Critical Paths under _main in BANK7

    None.

Critical Paths under _isr in BANK7

    None.

Critical Paths under _main in BANK8

    None.

Critical Paths under _isr in BANK8

    None.

Critical Paths under _main in BANK9

    None.

Critical Paths under _isr in BANK9

    None.

Critical Paths under _main in BANK10

    None.

Critical Paths under _isr in BANK10

    None.

Critical Paths under _main in BANK11

    None.

Critical Paths under _isr in BANK11

    None.

Critical Paths under _main in BANK12

    None.

Critical Paths under _isr in BANK12

    None.

Critical Paths under _main in BANK13

    None.

Critical Paths under _isr in BANK13

    None.

Critical Paths under _main in BANK14

    None.

Critical Paths under _isr in BANK14

    None.

Critical Paths under _main in BANK15

    None.

Critical Paths under _isr in BANK15

    None.

Critical Paths under _main in BANK16

    None.

Critical Paths under _isr in BANK16

    None.

Critical Paths under _main in BANK17

    None.

Critical Paths under _isr in BANK17

    None.

Critical Paths under _main in BANK18

    None.

Critical Paths under _isr in BANK18

    None.

Critical Paths under _main in BANK19

    None.

Critical Paths under _isr in BANK19

    None.

Critical Paths under _main in BANK20

    None.

Critical Paths under _isr in BANK20

    None.

Critical Paths under _main in BANK21

    None.

Critical Paths under _isr in BANK21

    None.

Critical Paths under _main in BANK22

    None.

Critical Paths under _isr in BANK22

    None.

Critical Paths under _main in BANK23

    None.

Critical Paths under _isr in BANK23

    None.

Critical Paths under _main in BANK24

    None.

Critical Paths under _isr in BANK24

    None.

Critical Paths under _main in BANK25

    None.

Critical Paths under _isr in BANK25

    None.

Call Graph Tables:

 ---------------------------------------------------------------------------------
 (Depth) Function   	        Calls       Base Space   Used Autos Params    Refs
 ---------------------------------------------------------------------------------
 (0) _main                                                 4     4      0    1587
                                             35 BANK0      2     2      0
                            _ReadADC
                           _UARTSend
                _ConfigureOscillator
                            _InitApp
                        _eeprom_read
                             _DACSet
                       _eeprom_write
                            _sprintf
                            ___awdiv
 ---------------------------------------------------------------------------------
 (1) ___awdiv                                              9     5      4     300
                                              7 BANK0      9     5      4
 ---------------------------------------------------------------------------------
 (1) _sprintf                                             14    11      3     798
                                             21 BANK0     14    11      3
                            ___lwdiv
                            ___lwmod
 ---------------------------------------------------------------------------------
 (2) ___lwmod                                              6     2      4     159
                                             15 BANK0      6     2      4
                            ___lwdiv (ARG)
 ---------------------------------------------------------------------------------
 (2) ___lwdiv                                              8     4      4     162
                                              7 BANK0      8     4      4
 ---------------------------------------------------------------------------------
 (1) _eeprom_write                                         4     3      1      44
                                              7 BANK0      4     3      1
 ---------------------------------------------------------------------------------
 (1) _DACSet                                               2     2      0      22
                                              7 BANK0      2     2      0
 ---------------------------------------------------------------------------------
 (1) _eeprom_read                                          4     4      0      22
                                              7 BANK0      4     4      0
 ---------------------------------------------------------------------------------
 (1) _InitApp                                              0     0      0     198
                             _ADCIni
                             _PWMIni
                            _UARTIni
                            _DACInit
                             _DioIni
 ---------------------------------------------------------------------------------
 (2) _DioIni                                               0     0      0       0
 ---------------------------------------------------------------------------------
 (2) _DACInit                                              0     0      0       0
 ---------------------------------------------------------------------------------
 (2) _UARTIni                                              0     0      0       0
 ---------------------------------------------------------------------------------
 (2) _PWMIni                                               0     0      0     132
                       _PWMSetConfig
 ---------------------------------------------------------------------------------
 (3) _PWMSetConfig                                         0     0      0     132
                    _PWMSetDutyCycle
                       _PWMSetPeriod
                        _PWMSetPhase
 ---------------------------------------------------------------------------------
 (4) _PWMSetPhase                                          2     0      2      44
                                              7 BANK0      2     0      2
 ---------------------------------------------------------------------------------
 (4) _PWMSetPeriod                                         2     0      2      44
                                              7 BANK0      2     0      2
 ---------------------------------------------------------------------------------
 (4) _PWMSetDutyCycle                                      2     0      2      44
                                              7 BANK0      2     0      2
 ---------------------------------------------------------------------------------
 (2) _ADCIni                                               3     2      1      66
                                              7 BANK0      3     2      1
 ---------------------------------------------------------------------------------
 (1) _ConfigureOscillator                                  0     0      0       0
 ---------------------------------------------------------------------------------
 (1) _UARTSend                                             6     5      1     178
                                              7 BANK0      6     5      1
 ---------------------------------------------------------------------------------
 (1) _ReadADC                                              7     5      2      25
                                              7 BANK0      6     4      2
 ---------------------------------------------------------------------------------
 Estimated maximum stack depth 4
 ---------------------------------------------------------------------------------
 (Depth) Function   	        Calls       Base Space   Used Autos Params    Refs
 ---------------------------------------------------------------------------------
 (5) _isr                                                  7     7      0     384
                                              0 BANK0      7     7      0
                             ___lmul
                     i1_PWMSetPeriod
                  i1_PWMSetDutyCycle
 ---------------------------------------------------------------------------------
 (6) i1_PWMSetDutyCycle                                    2     0      2     146
                                             12 COMMON     2     0      2
                             ___lmul (ARG)
 ---------------------------------------------------------------------------------
 (6) i1_PWMSetPeriod                                       2     0      2     146
                                             12 COMMON     2     0      2
                             ___lmul (ARG)
 ---------------------------------------------------------------------------------
 (6) ___lmul                                              12     4      8      92
                                              0 COMMON    12     4      8
 ---------------------------------------------------------------------------------
 Estimated maximum stack depth 6
 ---------------------------------------------------------------------------------

 Call Graph Graphs:

 _main (ROOT)
   _ReadADC
   _UARTSend
   _ConfigureOscillator
   _InitApp
     _ADCIni
     _PWMIni
       _PWMSetConfig
         _PWMSetDutyCycle
         _PWMSetPeriod
         _PWMSetPhase
     _UARTIni
     _DACInit
     _DioIni
   _eeprom_read
   _DACSet
   _eeprom_write
   _sprintf
     ___lwdiv
     ___lwmod
       ___lwdiv (ARG)
   ___awdiv

 _isr (ROOT)
   ___lmul
   i1_PWMSetPeriod
     ___lmul (ARG)
   i1_PWMSetDutyCycle
     ___lmul (ARG)

 Address spaces:
Name               Size   Autos  Total    Cost      Usage
BIGRAM             7F0      0       0       0        0.0%
EEDATA             100      0       0       0        0.0%
NULL                 0      0       0       0        0.0%
CODE                 0      0       0       0        0.0%
BITCOMMON            E      0       0       1        0.0%
BITSFR0              0      0       0       1        0.0%
SFR0                 0      0       0       1        0.0%
COMMON               E      E       E       2      100.0%
BITSFR1              0      0       0       2        0.0%
SFR1                 0      0       0       2        0.0%
BITSFR2              0      0       0       3        0.0%
SFR2                 0      0       0       3        0.0%
STACK                0      0       8       3        0.0%
BITBANK0            50      0       1       4        1.3%
BITSFR3              0      0       0       4        0.0%
SFR3                 0      0       0       4        0.0%
BANK0               50     25      48       5       90.0%
BITSFR4              0      0       0       5        0.0%
SFR4                 0      0       0       5        0.0%
BITBANK1            50      0       0       6        0.0%
BITSFR5              0      0       0       6        0.0%
SFR5                 0      0       0       6        0.0%
BANK1               50      0      3C       7       75.0%
BITSFR6              0      0       0       7        0.0%
SFR6                 0      0       0       7        0.0%
BITBANK2            50      0       0       8        0.0%
BITSFR7              0      0       0       8        0.0%
SFR7                 0      0       0       8        0.0%
BANK2               50      0       0       9        0.0%
BITSFR8              0      0       0       9        0.0%
SFR8                 0      0       0       9        0.0%
BITBANK3            50      0       0      10        0.0%
BITSFR9              0      0       0      10        0.0%
SFR9                 0      0       0      10        0.0%
BANK3               50      0       0      11        0.0%
BITSFR10             0      0       0      11        0.0%
SFR10                0      0       0      11        0.0%
BITBANK4            50      0       0      12        0.0%
BITSFR11             0      0       0      12        0.0%
SFR11                0      0       0      12        0.0%
BANK4               50      0       0      13        0.0%
BITSFR12             0      0       0      13        0.0%
SFR12                0      0       0      13        0.0%
BITSFR13             0      0       0      14        0.0%
SFR13                0      0       0      14        0.0%
ABS                  0      0      92      14        0.0%
BITBANK5            50      0       0      15        0.0%
BITSFR14             0      0       0      15        0.0%
SFR14                0      0       0      15        0.0%
BANK5               50      0       0      16        0.0%
BITSFR15             0      0       0      16        0.0%
SFR15                0      0       0      16        0.0%
BITBANK6            50      0       0      17        0.0%
BITSFR16             0      0       0      17        0.0%
SFR16                0      0       0      17        0.0%
BANK6               50      0       0      18        0.0%
BITSFR17             0      0       0      18        0.0%
SFR17                0      0       0      18        0.0%
BITBANK7            50      0       0      19        0.0%
BITSFR18             0      0       0      19        0.0%
SFR18                0      0       0      19        0.0%
BANK7               50      0       0      20        0.0%
BITSFR19             0      0       0      20        0.0%
SFR19                0      0       0      20        0.0%
BITBANK8            50      0       0      21        0.0%
BITSFR20             0      0       0      21        0.0%
SFR20                0      0       0      21        0.0%
BANK8               50      0       0      22        0.0%
BITSFR21             0      0       0      22        0.0%
SFR21                0      0       0      22        0.0%
BITBANK9            50      0       0      23        0.0%
BITSFR22             0      0       0      23        0.0%
SFR22                0      0       0      23        0.0%
BANK9               50      0       0      24        0.0%
BITSFR23             0      0       0      24        0.0%
SFR23                0      0       0      24        0.0%
BITBANK10           50      0       0      25        0.0%
BITSFR24             0      0       0      25        0.0%
SFR24                0      0       0      25        0.0%
BANK10              50      0       0      26        0.0%
BITSFR25             0      0       0      26        0.0%
SFR25                0      0       0      26        0.0%
BITBANK11           50      0       0      27        0.0%
BITSFR26             0      0       0      27        0.0%
SFR26                0      0       0      27        0.0%
BITSFR27             0      0       0      28        0.0%
SFR27                0      0       0      28        0.0%
DATA                 0      0      9A      28        0.0%
BANK11              50      0       0      29        0.0%
BITSFR28             0      0       0      29        0.0%
SFR28                0      0       0      29        0.0%
BITBANK12           50      0       0      30        0.0%
BITSFR29             0      0       0      30        0.0%
SFR29                0      0       0      30        0.0%
BANK12              50      0       0      31        0.0%
BITSFR30             0      0       0      31        0.0%
SFR30                0      0       0      31        0.0%
BITBANK13           50      0       0      32        0.0%
BITSFR31             0      0       0      32        0.0%
SFR31                0      0       0      32        0.0%
BANK13              50      0       0      33        0.0%
BITBANK14           50      0       0      34        0.0%
BANK14              50      0       0      35        0.0%
BITBANK15           50      0       0      36        0.0%
BANK15              50      0       0      37        0.0%
BITBANK16           50      0       0      38        0.0%
BANK16              50      0       0      39        0.0%
BITBANK17           50      0       0      40        0.0%
BANK17              50      0       0      41        0.0%
BITBANK18           50      0       0      42        0.0%
BANK18              50      0       0      43        0.0%
BITBANK19           50      0       0      44        0.0%
BANK19              50      0       0      45        0.0%
BITBANK20           50      0       0      46        0.0%
BANK20              50      0       0      47        0.0%
BITBANK21           50      0       0      48        0.0%
BANK21              50      0       0      49        0.0%
BITBANK22           50      0       0      50        0.0%
BANK22              48      0       0      51        0.0%
BITBANK23           50      0       0      52        0.0%
BANK23               0      0       0      53        0.0%
BITBANK24           50      0       0      54        0.0%
BANK24               0      0       0      55        0.0%
BITBANK25           20      0       0      56        0.0%
BANK25               0      0       0      57        0.0%


Microchip Technology PIC Macro Assembler V1.21 build 54009 
Symbol Table                                                                                   Sun Oct 19 09:06:33 2014

        __size_of_PWMSetPeriod 0009                     ReadADC@ANx 0070            ??i1_PWMSetDutyCycle 007E  
                  __CFG_CP$OFF 0000                             _GO 04E9                             _RD 0CA8  
                           _WR 0CA9                   ___awdiv@sign 002D                    ReadADC@vADC 002B  
                          l512 04B2                            l186 035E                            l534 0460  
                          _GIE 005F                            _RC2 0072                            _RA7 0067  
                 __CFG_CPD$OFF 0000                            u994 036A                            u995 0369  
                  _PWMSetPhase 0542                            _isr 0004                __end_of_DACInit 051F  
                          wreg 0009                   __CFG_LVP$OFF 0000                           l2101 020D  
                         l2061 0185                           l2071 019B                           l2055 0174  
                         l2233 02D6                           l2411 03F1                           l2083 01BD  
                         l2075 01A1                           l2251 02FC                           l2243 02DE  
                         l2227 02CB                           l2405 03D9                           l2245 02EA  
                         l2407 03E5                           l2415 03FA                           l2255 0305  
                         l2097 01D0                           l2089 01CC                           l2099 0159  
                         l2259 030D                           l2381 03A4                           l2383 03B0  
                         l2393 03CB                           l1933 032F                           l2389 03C2  
                         l1943 033B                           l1935 0339                           l1929 031D  
                         l1971 0278                           l1955 0227                           l1981 028E  
                         l1973 027D      __end_ofi1_PWMSetDutyCycle 0563                           l1979 028B  
                         l1997 02B9                           _ADIE 048E                           _ADIF 008E  
                         ?_isr 0070                           _ADON 04E8                           _CFGS 0CAE  
                         _EEIF 0094                           STR_1 04F7                           _BRGH 0CF2  
                         _CREN 0CEC                           u1004 0376                           u1005 0375  
                         u1015 0385                           u1025 0497                           u1211 04B1  
                         u2005 03EB                           u1135 0344                           u2015 03F2  
                         u1155 025D                           u1165 0265                           u1175 0271  
                         u2227 0391                           u1285 01B3                           u1605 02F5  
                         u1615 02FD                           u1575 02E1                           u1915 03A7  
                         u1595 02EB                           u1935 03B1                           u1945 03BB  
                         u1955 03C3                           u1985 03DC                           _RCIE 048D  
                         _RCIF 008D                   _PWMSetConfig 0430                           _TMR0 0015  
                         _SPEN 0CEF                           _TXIE 048C                           _WREN 0CAA  
                         _TXEN 0CF5                           _TXIF 008C                           _SYNC 0CF4  
               ??_eeprom_write 0028                           _bFlg 0060                __end_of_UARTIni 052C  
                 _PWMSetPeriod 054B                           _vPWM 0066                           _main 0212  
                         fsr0h 0005                           fsr1h 0007                           fsr0l 0004  
                         indf0 0000                           indf1 0001                           fsr1l 0006  
                         btemp 007E                           start 0125                __end_of_ReadADC 04AE  
              __end_of_InitApp 04EC                          ??_isr 0020                  __CFG_PLLEN$ON 0000  
                        ?_main 0070                __end_of___awdiv 0314                          _EEADR 0191  
                        _BRG16 0CFB                  __CFG_WDTE$OFF 0000                          _CARRY 0018  
                        _ANSA2 0C62                          _ANSA5 0C65                          _ANSA7 0C67  
                        _EEPGD 0CAF                ___awdiv@divisor 0027                __end_of___lwdiv 03D2  
                        i1l270 00D5                          i1l271 00D1                __end_of___lwmod 0401  
              ___awdiv@counter 002C                          _RCREG 0199                          _TRISA 008C  
                        _TRISB 008D                          _TXREG 019A            _ConfigureOscillator 0569  
          ___lmul@multiplicand 0074                  __CFG_PWRTE$ON 0000          PWMSetPeriod@cntPeriod 0027  
             __end_of_UARTSend 0363                __end_of_dpowers 04F7                          _stLen 0064  
               __CFG_BOREN$OFF 0000                          status 0003                          wtemp0 007E  
              __end_of_sprintf 0212                 i1_PWMSetPeriod 0563           ?_ConfigureOscillator 0070  
               __CFG_MCLRE$OFF 0000                __initialization 0127                   __end_of_main 02C0  
                    ??_DACInit 0027              ??_PWMSetDutyCycle 0029    PWMSetDutyCycle@cntDutyCycle 0027  
                       ??_main 0043                      ADCIni@ANx 0029                      ??_UARTIni 0027  
                       _DAC1EN 08C7                         _ADCON0 009D                         _ADCON1 009E  
                       _ADCON2 009F                         _ADCIni 0363                         _ADRESH 009C  
                       _ADRESL 009B                         _EEADRL 0191                         _EEDATA 0193  
                       _EEDATH 0194                         _CCPR1L 0291                         _EEDATL 0193  
                       _EECON1 0195                         _EECON2 0196                         _DACSet 0500  
             ___awdiv@dividend 0029                     _vADCANOld1 0055     __size_ofi1_PWMSetDutyCycle 0007  
                       _ANSELA 018C                         _ANSELB 018D                         _ANSELC 018E  
                       i1l2513 00E9                         i1l2521 0120                         i1l2363 0413  
                       i1l2507 00E5                         i1l2445 001B                         i1l2359 0409  
                       i1l2463 0092                         i1l2439 0014                         i1l2481 00B6  
                       i1l2473 00A2                         i1l2459 002C                         i1l2469 0099  
                       u210_25 004A                         u211_25 007F                         _RA7Old 005D  
                       _INTCON 000B                         u187_25 0414                         u188_25 041B  
                       _OSCCON 0099         __end_ofi1_PWMSetPeriod 0569                         _TMR0IE 005D  
                       _TMR0IF 005A                         _SPBRGH 019C                         _SPBRGL 019B  
                    DACSet@Val 0028                         _TRISA2 0462                         _TRISC0 0470  
                       _TRISC1 0471                         _TRISA5 0465                         _TRISC2 0472  
                       _TRISA6 0466                         _TRISA7 0467                         _TRISC6 0476  
                       _TRISC7 0477                         _PWMIni 056D                      ??_ReadADC 0029  
                       _DioIni 0554                      ??_InitApp 002A          ??_ConfigureOscillator 0027  
         __size_of_eeprom_read 0021                         ___lmul 0401                      ??___awdiv 002B  
                       _idxADC 0063                         _cntPWM 004B                         _cntCur 0049  
                    ??___lwdiv 002B                      ??___lwmod 0033               ___awdiv@quotient 002E  
         __end_of_eeprom_write 048A                      ??_sprintf 0038        __end_of__initialization 0150  
              ?i1_PWMSetPeriod 007C                eeprom_read@addr 002A                 __pcstackCOMMON 0070  
                 __pidataBANK0 0570                      ?_UARTSend 0027                   ?_PWMSetPhase 0027  
            eeprom_write@value 0027                        ?_ADCIni 0027                        ?_DACSet 0070  
                   __pbssBANK0 0045                     __pbssBANK1 00A0                        ?_PWMIni 0070  
                      ?_DioIni 0070                     ADCIni@Fosc 0027                     __pmaintext 0212  
                _flgADCAryFull 0328                        ?___lmul 0070                     ??_UARTSend 0028  
                      _DAC1OE1 08C5                        _DAC1OE2 08C4                     __pintentry 0004  
                      _DAC1NSS 08C0                        _CCP1CON 0293                 ___lmul@product 0078  
                      _DACInit 0512                      UARTSend@i 002B                        _P1TPRIE 7504  
                      _P1TPRIF 7500                        _PSMC1LD 748E                        _UARTIni 051F  
                    _ADCON0Tmp 005C                __size_of_ADCIni 0038                __size_of_DACSet 0012  
                   __stringtab 04EC                        _ReadADC 048A                __size_of_PWMIni 0003  
                      _InitApp 04CF                _PWMSetDutyCycle 0538                __size_of_DioIni 0008  
                      _vADCAN0 004F          __size_of_eeprom_write 002C                        ___awdiv 02C0  
              __size_of___lmul 002F                        ___lwdiv 039B                        ___lwmod 03D2  
                      _flgPSMC 0329                        _cntPerd 0061                        __ptext1 02C0  
                      __ptext2 0153                        __ptext3 03D2                        __ptext4 039B  
                      __ptext5 045E                        __ptext6 0500                        __ptext7 04AE  
                      __ptext8 04CF                        __ptext9 0554                        _vSenOld 0059  
                      _counter 004D                        _dpowers 04ED                   __size_of_isr 0121  
                      _sprintf 0153                        clrloop0 052D         EEPROMWrite@cntOverTime 005B  
         end_of_initialization 0150                   _eeprom_write 045E                      _PSMC1STR0 0EAE  
             __CFG_FOSC$INTOSC 0000           __size_of_PWMSetPhase 0009               ??i1_PWMSetPeriod 007E  
  __end_of_ConfigureOscillator 056D        __end_of_PWMSetDutyCycle 0542                 __end_of_ADCIni 039B  
               _UART_cntRxUART 005E                 __end_of_DACSet 0512                 _UART_cntTxUART 005F  
                ??_eeprom_read 0027                 __end_of_PWMIni 0570                 __end_of_DioIni 055C  
i1PWMSetDutyCycle@cntDutyCycle 007C                 __end_of___lmul 0430              __size_of_UARTSend 004F  
                __pbitbssBANK0 0328            start_initialization 0127                    __end_of_isr 0125  
                     ??_ADCIni 0028                    _ADC_vADCAry 2728                       ??_DACSet 0027  
                ?_PWMSetConfig 0070                  ?_PWMSetPeriod 0027                      _vADCANFlt 0051  
                     ??_PWMIni 0029                      _vADCANOld 0053                       ??_DioIni 0027  
                     ??___lmul 0078            __end_of_eeprom_read 04CF                    __pdataBANK0 0066  
                     ?_DACInit 0070                    __pbssBIGRAM 2728                  __pcstackBANK0 0020  
          __end_of__stringdata 0500                       ?_UARTIni 0070                 ??_PWMSetConfig 0029  
             ?_PWMSetDutyCycle 0027                 ??_PWMSetPeriod 0029               eeprom_write@addr 002A  
                  sprintf@_val 003D                    sprintf@flag 003B                    _cntUARTSend 0062  
                  sprintf@prec 003C                       ?_ReadADC 0027                       ?_InitApp 0070  
                UARTSend@pData 002A               ___lwdiv@dividend 0029                  UARTSend@stLen 0027  
                    _flgTicTac 032A                       ?___awdiv 0027                       ?___lwdiv 0027  
                     ?___lwmod 002F                       _DAC1CON0 0118                       _DAC1CON1 0119  
                    __pstrings 04EC                       _ADC_vADC 0045               ___lwdiv@quotient 002C  
                     ?_sprintf 0035                      clear_ram0 052C                    _eeprom_read 04AE  
                     _PSMC1DBF 0EAA                       _PSMC1DCH 0EA4                       _PSMC1DCL 0EA3  
                     _PSMC1DBR 0EA9                       _PSMC1CLK 0E94                       _PSMC1CON 0E91  
                     _PSMC1OEN 0E95                       _PSMC1INT 0EA0                       _PSMC1PHH 0EA2  
                     _PSMC1PHL 0EA1                       _PSMC1POL 0E96                       _PSMC1PRH 0EA6  
                     _PSMC1PRL 0EA5                       _UARTSend 0314                   _PSMC1DCSbits 0E9B  
                  __stringdata 04F7               __size_of_DACInit 000D                   _PSMC1PHSbits 0E9A  
                 _PSMC1PRSbits 0E9C              ___lmul@multiplier 0070               __size_of_UARTIni 000D  
             __size_of_ReadADC 0024               __size_of_InitApp 001D                       _chBufADC 00C8  
         __end_of_PWMSetConfig 045E               __size_of___awdiv 0054               __size_of___lwdiv 0037  
             __size_of___lwmod 002F           __end_of_PWMSetPeriod 0554             __end_of__stringtab 04ED  
                ??_PWMSetPhase 0029                ___lwdiv@divisor 0027                       _cntBlink 0047  
              ___lwdiv@counter 002E                       __ptext10 0512                       __ptext11 051F  
                     __ptext20 048A                       __ptext12 056D                       __ptext13 0430  
                     __ptext22 055C                       __ptext14 0542                       __ptext23 0563  
                     __ptext15 054B                       __ptext24 0401                       __ptext16 0538  
                     __ptext17 0363                       __ptext18 0569                       __ptext19 0314  
                     _vPeakVld 0057               __size_of_sprintf 00BF                  __size_of_main 00AE  
 __size_of_ConfigureOscillator 0004                   _UART_chRxBuf 00A0                   _UART_chTxBuf 00B4  
          __end_of_PWMSetPhase 054B                       intlevel1 0000                      sprintf@ap 003A  
                    sprintf@sp 0041            PWMSetPhase@cntPhase 0027               ___lwmod@dividend 0031  
            __CFG_CLKOUTEN$OFF 0000        __size_ofi1_PWMSetPeriod 0006                     _OPTION_REG 0095  
                     sprintf@c 0042                       sprintf@f 0035        i1PWMSetPeriod@cntPeriod 007C  
              ___lwmod@divisor 002F                ___lwmod@counter 0034                  ?_eeprom_write 0027  
            i1_PWMSetDutyCycle 055C                   ?_eeprom_read 0070             ?i1_PWMSetDutyCycle 007C  
        __size_of_PWMSetConfig 002E       __size_of_PWMSetDutyCycle 000A  
